Component: ARM Compiler 5.06 update 6 (build 750) Tool: armlink [4d35ed]

==============================================================================

Section Cross References

    l6470.o(i.FsSpd_2_Step_s) refers to dfltui.o(.text) for __aeabi_ui2d
    l6470.o(i.FsSpd_2_Step_s) refers to dadd.o(.text) for __aeabi_dadd
    l6470.o(i.FsSpd_2_Step_s) refers to dmul.o(.text) for __aeabi_dmul
    l6470.o(i.FsSpd_2_Step_s) refers to d2f.o(.text) for __aeabi_d2f
    l6470.o(i.L6470_CheckStatusRegisterFlag) refers to l6470.o(i.L6470_GetParam) for L6470_GetParam
    l6470.o(i.L6470_CheckStatusRegisterFlag) refers to l6470.o(.data) for pL6470_StatusRegister
    l6470.o(i.L6470_Config) refers to l6470.o(i.Step_s2_2_Acc) for Step_s2_2_Acc
    l6470.o(i.L6470_Config) refers to l6470.o(i.Step_s2_2_Dec) for Step_s2_2_Dec
    l6470.o(i.L6470_Config) refers to l6470.o(i.Step_s_2_MaxSpeed) for Step_s_2_MaxSpeed
    l6470.o(i.L6470_Config) refers to l6470.o(i.Step_s_2_MinSpeed) for Step_s_2_MinSpeed
    l6470.o(i.L6470_Config) refers to l6470.o(i.Step_s_2_FsSpd) for Step_s_2_FsSpd
    l6470.o(i.L6470_Config) refers to l6470.o(i.Step_s_2_IntSpeed) for Step_s_2_IntSpeed
    l6470.o(i.L6470_Config) refers to l6470.o(i.s_Step_2_StSlp) for s_Step_2_StSlp
    l6470.o(i.L6470_Config) refers to l6470.o(i.s_Step_2_FnSlpAcc) for s_Step_2_FnSlpAcc
    l6470.o(i.L6470_Config) refers to l6470.o(i.s_Step_2_FnSlpDec) for s_Step_2_FnSlpDec
    l6470.o(i.L6470_Config) refers to l6470.o(i.mA_2_OcdTh) for mA_2_OcdTh
    l6470.o(i.L6470_Config) refers to l6470.o(i.mA_2_StallTh) for mA_2_StallTh
    l6470.o(i.L6470_DaisyChainCommand) refers to stm32f4xx_hal_gpio.o(i.HAL_GPIO_WritePin) for HAL_GPIO_WritePin
    l6470.o(i.L6470_DaisyChainCommand) refers to stm32f4xx_hal_spi.o(i.HAL_SPI_TransmitReceive) for HAL_SPI_TransmitReceive
    l6470.o(i.L6470_DaisyChainCommand) refers to l6470.o(.data) for L6470_DaisyChain_HalfPrepared
    l6470.o(i.L6470_DaisyChainCommand) refers to xnucleoihm02a1.o(.bss) for L6470_nCS_GPIO
    l6470.o(i.L6470_DaisyChainCommand) refers to xnucleoihm02a1_interface.o(.bss) for hspi1
    l6470.o(i.L6470_GetParam) refers to l6470.o(i.L6470_PrepareAppCmdPkg) for L6470_PrepareAppCmdPkg
    l6470.o(i.L6470_GetParam) refers to l6470.o(i.L6470_PrepareDaisyChainCommand) for L6470_PrepareDaisyChainCommand
    l6470.o(i.L6470_GetParam) refers to l6470.o(i.L6470_DaisyChainCommand) for L6470_DaisyChainCommand
    l6470.o(i.L6470_GetParam) refers to l6470.o(i.L6470_ExtractReturnedData) for L6470_ExtractReturnedData
    l6470.o(i.L6470_GetParam) refers to l6470.o(.bss) for L6470_AppCmdPkg
    l6470.o(i.L6470_GetParam) refers to l6470.o(.data) for L6470_DaisyChainSpiTxStruct
    l6470.o(i.L6470_GetParam) refers to l6470.o(.constdata) for L6470_Register
    l6470.o(i.L6470_GetRegisterName) refers to l6470.o(.constdata) for L6470_Register
    l6470.o(i.L6470_GetStatus) refers to l6470.o(i.L6470_PrepareAppCmdPkg) for L6470_PrepareAppCmdPkg
    l6470.o(i.L6470_GetStatus) refers to l6470.o(i.L6470_PrepareDaisyChainCommand) for L6470_PrepareDaisyChainCommand
    l6470.o(i.L6470_GetStatus) refers to l6470.o(i.L6470_DaisyChainCommand) for L6470_DaisyChainCommand
    l6470.o(i.L6470_GetStatus) refers to l6470.o(i.L6470_ExtractReturnedData) for L6470_ExtractReturnedData
    l6470.o(i.L6470_GetStatus) refers to l6470.o(.bss) for L6470_AppCmdPkg
    l6470.o(i.L6470_GetStatus) refers to l6470.o(.data) for L6470_DaisyChainSpiTxStruct
    l6470.o(i.L6470_GoHome) refers to l6470.o(i.L6470_PrepareAppCmdPkg) for L6470_PrepareAppCmdPkg
    l6470.o(i.L6470_GoHome) refers to l6470.o(i.L6470_PrepareDaisyChainCommand) for L6470_PrepareDaisyChainCommand
    l6470.o(i.L6470_GoHome) refers to l6470.o(i.L6470_DaisyChainCommand) for L6470_DaisyChainCommand
    l6470.o(i.L6470_GoHome) refers to l6470.o(.bss) for L6470_AppCmdPkg
    l6470.o(i.L6470_GoHome) refers to l6470.o(.data) for L6470_DaisyChainSpiTxStruct
    l6470.o(i.L6470_GoMark) refers to l6470.o(i.L6470_PrepareAppCmdPkg) for L6470_PrepareAppCmdPkg
    l6470.o(i.L6470_GoMark) refers to l6470.o(i.L6470_PrepareDaisyChainCommand) for L6470_PrepareDaisyChainCommand
    l6470.o(i.L6470_GoMark) refers to l6470.o(i.L6470_DaisyChainCommand) for L6470_DaisyChainCommand
    l6470.o(i.L6470_GoMark) refers to l6470.o(.bss) for L6470_AppCmdPkg
    l6470.o(i.L6470_GoMark) refers to l6470.o(.data) for L6470_DaisyChainSpiTxStruct
    l6470.o(i.L6470_GoTo) refers to l6470.o(i.L6470_PrepareAppCmdPkg) for L6470_PrepareAppCmdPkg
    l6470.o(i.L6470_GoTo) refers to l6470.o(i.L6470_PrepareDaisyChainCommand) for L6470_PrepareDaisyChainCommand
    l6470.o(i.L6470_GoTo) refers to l6470.o(i.L6470_DaisyChainCommand) for L6470_DaisyChainCommand
    l6470.o(i.L6470_GoTo) refers to l6470.o(.bss) for L6470_AppCmdPkg
    l6470.o(i.L6470_GoTo) refers to l6470.o(.data) for L6470_DaisyChainSpiTxStruct
    l6470.o(i.L6470_GoToDir) refers to l6470.o(i.L6470_PrepareAppCmdPkg) for L6470_PrepareAppCmdPkg
    l6470.o(i.L6470_GoToDir) refers to l6470.o(i.L6470_PrepareDaisyChainCommand) for L6470_PrepareDaisyChainCommand
    l6470.o(i.L6470_GoToDir) refers to l6470.o(i.L6470_DaisyChainCommand) for L6470_DaisyChainCommand
    l6470.o(i.L6470_GoToDir) refers to l6470.o(.bss) for L6470_AppCmdPkg
    l6470.o(i.L6470_GoToDir) refers to l6470.o(.data) for L6470_DaisyChainSpiTxStruct
    l6470.o(i.L6470_GoUntil) refers to l6470.o(i.L6470_PrepareAppCmdPkg) for L6470_PrepareAppCmdPkg
    l6470.o(i.L6470_GoUntil) refers to l6470.o(i.L6470_PrepareDaisyChainCommand) for L6470_PrepareDaisyChainCommand
    l6470.o(i.L6470_GoUntil) refers to l6470.o(i.L6470_DaisyChainCommand) for L6470_DaisyChainCommand
    l6470.o(i.L6470_GoUntil) refers to l6470.o(.bss) for L6470_AppCmdPkg
    l6470.o(i.L6470_GoUntil) refers to l6470.o(.data) for L6470_DaisyChainSpiTxStruct
    l6470.o(i.L6470_HardHiZ) refers to l6470.o(i.L6470_PrepareAppCmdPkg) for L6470_PrepareAppCmdPkg
    l6470.o(i.L6470_HardHiZ) refers to l6470.o(i.L6470_PrepareDaisyChainCommand) for L6470_PrepareDaisyChainCommand
    l6470.o(i.L6470_HardHiZ) refers to l6470.o(i.L6470_DaisyChainCommand) for L6470_DaisyChainCommand
    l6470.o(i.L6470_HardHiZ) refers to l6470.o(.bss) for L6470_AppCmdPkg
    l6470.o(i.L6470_HardHiZ) refers to l6470.o(.data) for L6470_DaisyChainSpiTxStruct
    l6470.o(i.L6470_HardStop) refers to l6470.o(i.L6470_PrepareAppCmdPkg) for L6470_PrepareAppCmdPkg
    l6470.o(i.L6470_HardStop) refers to l6470.o(i.L6470_PrepareDaisyChainCommand) for L6470_PrepareDaisyChainCommand
    l6470.o(i.L6470_HardStop) refers to l6470.o(i.L6470_DaisyChainCommand) for L6470_DaisyChainCommand
    l6470.o(i.L6470_HardStop) refers to l6470.o(.bss) for L6470_AppCmdPkg
    l6470.o(i.L6470_HardStop) refers to l6470.o(.data) for L6470_DaisyChainSpiTxStruct
    l6470.o(i.L6470_Move) refers to l6470.o(i.L6470_PrepareAppCmdPkg) for L6470_PrepareAppCmdPkg
    l6470.o(i.L6470_Move) refers to l6470.o(i.L6470_PrepareDaisyChainCommand) for L6470_PrepareDaisyChainCommand
    l6470.o(i.L6470_Move) refers to l6470.o(i.L6470_DaisyChainCommand) for L6470_DaisyChainCommand
    l6470.o(i.L6470_Move) refers to l6470.o(.bss) for L6470_AppCmdPkg
    l6470.o(i.L6470_Move) refers to l6470.o(.data) for L6470_DaisyChainSpiTxStruct
    l6470.o(i.L6470_PerformPreparedApplicationCommand) refers to l6470.o(i.L6470_PrepareDaisyChainCommand) for L6470_PrepareDaisyChainCommand
    l6470.o(i.L6470_PerformPreparedApplicationCommand) refers to l6470.o(i.L6470_DaisyChainCommand) for L6470_DaisyChainCommand
    l6470.o(i.L6470_PerformPreparedApplicationCommand) refers to l6470.o(.data) for L6470_DaisyChainSpiTxStruct
    l6470.o(i.L6470_PerformPreparedApplicationCommand) refers to l6470.o(.bss) for L6470_AppCmdPkg
    l6470.o(i.L6470_PrepareAppCmdPkg) refers to l6470.o(i.L6470_ResetAppCmdPkg) for L6470_ResetAppCmdPkg
    l6470.o(i.L6470_PrepareAppCmdPkg) refers to l6470.o(i.L6470_FillAppCmdPkg) for L6470_FillAppCmdPkg
    l6470.o(i.L6470_PrepareAppCmdPkg) refers to l6470.o(.data) for L6470_DaisyChain_HalfPrepared
    l6470.o(i.L6470_PrepareDaisyChainCommand) refers to l6470.o(.constdata) for L6470_ApplicationCommand
    l6470.o(i.L6470_PrepareGetParam) refers to l6470.o(i.L6470_PrepareAppCmdPkg) for L6470_PrepareAppCmdPkg
    l6470.o(i.L6470_PrepareGetParam) refers to l6470.o(.bss) for L6470_AppCmdPkg
    l6470.o(i.L6470_PrepareGetStatus) refers to l6470.o(i.L6470_PrepareAppCmdPkg) for L6470_PrepareAppCmdPkg
    l6470.o(i.L6470_PrepareGetStatus) refers to l6470.o(.bss) for L6470_AppCmdPkg
    l6470.o(i.L6470_PrepareGoHome) refers to l6470.o(i.L6470_PrepareAppCmdPkg) for L6470_PrepareAppCmdPkg
    l6470.o(i.L6470_PrepareGoHome) refers to l6470.o(.bss) for L6470_AppCmdPkg
    l6470.o(i.L6470_PrepareGoMark) refers to l6470.o(i.L6470_PrepareAppCmdPkg) for L6470_PrepareAppCmdPkg
    l6470.o(i.L6470_PrepareGoMark) refers to l6470.o(.bss) for L6470_AppCmdPkg
    l6470.o(i.L6470_PrepareGoTo) refers to l6470.o(i.L6470_PrepareAppCmdPkg) for L6470_PrepareAppCmdPkg
    l6470.o(i.L6470_PrepareGoTo) refers to l6470.o(.bss) for L6470_AppCmdPkg
    l6470.o(i.L6470_PrepareGoToDir) refers to l6470.o(i.L6470_PrepareAppCmdPkg) for L6470_PrepareAppCmdPkg
    l6470.o(i.L6470_PrepareGoToDir) refers to l6470.o(.bss) for L6470_AppCmdPkg
    l6470.o(i.L6470_PrepareGoUntil) refers to l6470.o(i.L6470_PrepareAppCmdPkg) for L6470_PrepareAppCmdPkg
    l6470.o(i.L6470_PrepareGoUntil) refers to l6470.o(.bss) for L6470_AppCmdPkg
    l6470.o(i.L6470_PrepareHardHiZ) refers to l6470.o(i.L6470_PrepareAppCmdPkg) for L6470_PrepareAppCmdPkg
    l6470.o(i.L6470_PrepareHardHiZ) refers to l6470.o(.bss) for L6470_AppCmdPkg
    l6470.o(i.L6470_PrepareHardStop) refers to l6470.o(i.L6470_PrepareAppCmdPkg) for L6470_PrepareAppCmdPkg
    l6470.o(i.L6470_PrepareHardStop) refers to l6470.o(.bss) for L6470_AppCmdPkg
    l6470.o(i.L6470_PrepareMove) refers to l6470.o(i.L6470_PrepareAppCmdPkg) for L6470_PrepareAppCmdPkg
    l6470.o(i.L6470_PrepareMove) refers to l6470.o(.bss) for L6470_AppCmdPkg
    l6470.o(i.L6470_PrepareReleaseSW) refers to l6470.o(i.L6470_PrepareAppCmdPkg) for L6470_PrepareAppCmdPkg
    l6470.o(i.L6470_PrepareReleaseSW) refers to l6470.o(.bss) for L6470_AppCmdPkg
    l6470.o(i.L6470_PrepareResetDevice) refers to l6470.o(i.L6470_PrepareAppCmdPkg) for L6470_PrepareAppCmdPkg
    l6470.o(i.L6470_PrepareResetDevice) refers to l6470.o(.bss) for L6470_AppCmdPkg
    l6470.o(i.L6470_PrepareResetPos) refers to l6470.o(i.L6470_PrepareAppCmdPkg) for L6470_PrepareAppCmdPkg
    l6470.o(i.L6470_PrepareResetPos) refers to l6470.o(.bss) for L6470_AppCmdPkg
    l6470.o(i.L6470_PrepareRun) refers to l6470.o(i.L6470_PrepareAppCmdPkg) for L6470_PrepareAppCmdPkg
    l6470.o(i.L6470_PrepareRun) refers to l6470.o(.bss) for L6470_AppCmdPkg
    l6470.o(i.L6470_PrepareSetParam) refers to l6470.o(i.L6470_PrepareAppCmdPkg) for L6470_PrepareAppCmdPkg
    l6470.o(i.L6470_PrepareSetParam) refers to l6470.o(.bss) for L6470_AppCmdPkg
    l6470.o(i.L6470_PrepareSoftHiZ) refers to l6470.o(i.L6470_PrepareAppCmdPkg) for L6470_PrepareAppCmdPkg
    l6470.o(i.L6470_PrepareSoftHiZ) refers to l6470.o(.bss) for L6470_AppCmdPkg
    l6470.o(i.L6470_PrepareSoftStop) refers to l6470.o(i.L6470_PrepareAppCmdPkg) for L6470_PrepareAppCmdPkg
    l6470.o(i.L6470_PrepareSoftStop) refers to l6470.o(.bss) for L6470_AppCmdPkg
    l6470.o(i.L6470_PrepareStepClock) refers to l6470.o(i.L6470_PrepareAppCmdPkg) for L6470_PrepareAppCmdPkg
    l6470.o(i.L6470_PrepareStepClock) refers to l6470.o(.bss) for L6470_AppCmdPkg
    l6470.o(i.L6470_ReleaseSW) refers to l6470.o(i.L6470_PrepareAppCmdPkg) for L6470_PrepareAppCmdPkg
    l6470.o(i.L6470_ReleaseSW) refers to l6470.o(i.L6470_PrepareDaisyChainCommand) for L6470_PrepareDaisyChainCommand
    l6470.o(i.L6470_ReleaseSW) refers to l6470.o(i.L6470_DaisyChainCommand) for L6470_DaisyChainCommand
    l6470.o(i.L6470_ReleaseSW) refers to l6470.o(.bss) for L6470_AppCmdPkg
    l6470.o(i.L6470_ReleaseSW) refers to l6470.o(.data) for L6470_DaisyChainSpiTxStruct
    l6470.o(i.L6470_ResetDevice) refers to l6470.o(i.L6470_PrepareAppCmdPkg) for L6470_PrepareAppCmdPkg
    l6470.o(i.L6470_ResetDevice) refers to l6470.o(i.L6470_PrepareDaisyChainCommand) for L6470_PrepareDaisyChainCommand
    l6470.o(i.L6470_ResetDevice) refers to l6470.o(i.L6470_DaisyChainCommand) for L6470_DaisyChainCommand
    l6470.o(i.L6470_ResetDevice) refers to l6470.o(.bss) for L6470_AppCmdPkg
    l6470.o(i.L6470_ResetDevice) refers to l6470.o(.data) for L6470_DaisyChainSpiTxStruct
    l6470.o(i.L6470_ResetPos) refers to l6470.o(i.L6470_PrepareAppCmdPkg) for L6470_PrepareAppCmdPkg
    l6470.o(i.L6470_ResetPos) refers to l6470.o(i.L6470_PrepareDaisyChainCommand) for L6470_PrepareDaisyChainCommand
    l6470.o(i.L6470_ResetPos) refers to l6470.o(i.L6470_DaisyChainCommand) for L6470_DaisyChainCommand
    l6470.o(i.L6470_ResetPos) refers to l6470.o(.bss) for L6470_AppCmdPkg
    l6470.o(i.L6470_ResetPos) refers to l6470.o(.data) for L6470_DaisyChainSpiTxStruct
    l6470.o(i.L6470_Run) refers to l6470.o(i.L6470_PrepareAppCmdPkg) for L6470_PrepareAppCmdPkg
    l6470.o(i.L6470_Run) refers to l6470.o(i.L6470_PrepareDaisyChainCommand) for L6470_PrepareDaisyChainCommand
    l6470.o(i.L6470_Run) refers to l6470.o(i.L6470_DaisyChainCommand) for L6470_DaisyChainCommand
    l6470.o(i.L6470_Run) refers to l6470.o(.bss) for L6470_AppCmdPkg
    l6470.o(i.L6470_Run) refers to l6470.o(.data) for L6470_DaisyChainSpiTxStruct
    l6470.o(i.L6470_SetParam) refers to l6470.o(i.L6470_PrepareAppCmdPkg) for L6470_PrepareAppCmdPkg
    l6470.o(i.L6470_SetParam) refers to l6470.o(i.L6470_PrepareDaisyChainCommand) for L6470_PrepareDaisyChainCommand
    l6470.o(i.L6470_SetParam) refers to l6470.o(i.L6470_DaisyChainCommand) for L6470_DaisyChainCommand
    l6470.o(i.L6470_SetParam) refers to l6470.o(.bss) for L6470_AppCmdPkg
    l6470.o(i.L6470_SetParam) refers to l6470.o(.data) for L6470_DaisyChainSpiTxStruct
    l6470.o(i.L6470_SoftHiZ) refers to l6470.o(i.L6470_PrepareAppCmdPkg) for L6470_PrepareAppCmdPkg
    l6470.o(i.L6470_SoftHiZ) refers to l6470.o(i.L6470_PrepareDaisyChainCommand) for L6470_PrepareDaisyChainCommand
    l6470.o(i.L6470_SoftHiZ) refers to l6470.o(i.L6470_DaisyChainCommand) for L6470_DaisyChainCommand
    l6470.o(i.L6470_SoftHiZ) refers to l6470.o(.bss) for L6470_AppCmdPkg
    l6470.o(i.L6470_SoftHiZ) refers to l6470.o(.data) for L6470_DaisyChainSpiTxStruct
    l6470.o(i.L6470_SoftStop) refers to l6470.o(i.L6470_PrepareAppCmdPkg) for L6470_PrepareAppCmdPkg
    l6470.o(i.L6470_SoftStop) refers to l6470.o(i.L6470_PrepareDaisyChainCommand) for L6470_PrepareDaisyChainCommand
    l6470.o(i.L6470_SoftStop) refers to l6470.o(i.L6470_DaisyChainCommand) for L6470_DaisyChainCommand
    l6470.o(i.L6470_SoftStop) refers to l6470.o(.bss) for L6470_AppCmdPkg
    l6470.o(i.L6470_SoftStop) refers to l6470.o(.data) for L6470_DaisyChainSpiTxStruct
    l6470.o(i.L6470_StepClock) refers to l6470.o(i.L6470_PrepareAppCmdPkg) for L6470_PrepareAppCmdPkg
    l6470.o(i.L6470_StepClock) refers to l6470.o(i.L6470_PrepareDaisyChainCommand) for L6470_PrepareDaisyChainCommand
    l6470.o(i.L6470_StepClock) refers to l6470.o(i.L6470_DaisyChainCommand) for L6470_DaisyChainCommand
    l6470.o(i.L6470_StepClock) refers to l6470.o(.bss) for L6470_AppCmdPkg
    l6470.o(i.L6470_StepClock) refers to l6470.o(.data) for L6470_DaisyChainSpiTxStruct
    l6470.o(i.Step_s_2_FsSpd) refers to f2d.o(.text) for __aeabi_f2d
    l6470.o(i.Step_s_2_FsSpd) refers to cdcmple.o(.text) for __aeabi_cdcmple
    l6470.o(.data) refers to l6470.o(i.L6470_SetParam) for L6470_SetParam
    l6470.o(.data) refers to l6470.o(i.L6470_GetParam) for L6470_GetParam
    l6470.o(.data) refers to l6470.o(i.L6470_Run) for L6470_Run
    l6470.o(.data) refers to l6470.o(i.L6470_StepClock) for L6470_StepClock
    l6470.o(.data) refers to l6470.o(i.L6470_Move) for L6470_Move
    l6470.o(.data) refers to l6470.o(i.L6470_GoTo) for L6470_GoTo
    l6470.o(.data) refers to l6470.o(i.L6470_GoToDir) for L6470_GoToDir
    l6470.o(.data) refers to l6470.o(i.L6470_GoUntil) for L6470_GoUntil
    l6470.o(.data) refers to l6470.o(i.L6470_ReleaseSW) for L6470_ReleaseSW
    l6470.o(.data) refers to l6470.o(i.L6470_GoHome) for L6470_GoHome
    l6470.o(.data) refers to l6470.o(i.L6470_GoMark) for L6470_GoMark
    l6470.o(.data) refers to l6470.o(i.L6470_ResetPos) for L6470_ResetPos
    l6470.o(.data) refers to l6470.o(i.L6470_ResetDevice) for L6470_ResetDevice
    l6470.o(.data) refers to l6470.o(i.L6470_SoftStop) for L6470_SoftStop
    l6470.o(.data) refers to l6470.o(i.L6470_HardStop) for L6470_HardStop
    l6470.o(.data) refers to l6470.o(i.L6470_SoftHiZ) for L6470_SoftHiZ
    l6470.o(.data) refers to l6470.o(i.L6470_HardHiZ) for L6470_HardHiZ
    l6470.o(.data) refers to l6470.o(i.L6470_GetStatus) for L6470_GetStatus
    l6470.o(.data) refers to l6470.o(i.L6470_PrepareSetParam) for L6470_PrepareSetParam
    l6470.o(.data) refers to l6470.o(i.L6470_PrepareGetParam) for L6470_PrepareGetParam
    l6470.o(.data) refers to l6470.o(i.L6470_PrepareRun) for L6470_PrepareRun
    l6470.o(.data) refers to l6470.o(i.L6470_PrepareStepClock) for L6470_PrepareStepClock
    l6470.o(.data) refers to l6470.o(i.L6470_PrepareMove) for L6470_PrepareMove
    l6470.o(.data) refers to l6470.o(i.L6470_PrepareGoTo) for L6470_PrepareGoTo
    l6470.o(.data) refers to l6470.o(i.L6470_PrepareGoToDir) for L6470_PrepareGoToDir
    l6470.o(.data) refers to l6470.o(i.L6470_PrepareGoUntil) for L6470_PrepareGoUntil
    l6470.o(.data) refers to l6470.o(i.L6470_PrepareReleaseSW) for L6470_PrepareReleaseSW
    l6470.o(.data) refers to l6470.o(i.L6470_PrepareGoHome) for L6470_PrepareGoHome
    l6470.o(.data) refers to l6470.o(i.L6470_PrepareGoMark) for L6470_PrepareGoMark
    l6470.o(.data) refers to l6470.o(i.L6470_PrepareResetPos) for L6470_PrepareResetPos
    l6470.o(.data) refers to l6470.o(i.L6470_PrepareResetDevice) for L6470_PrepareResetDevice
    l6470.o(.data) refers to l6470.o(i.L6470_PrepareSoftStop) for L6470_PrepareSoftStop
    l6470.o(.data) refers to l6470.o(i.L6470_PrepareHardStop) for L6470_PrepareHardStop
    l6470.o(.data) refers to l6470.o(i.L6470_PrepareSoftHiZ) for L6470_PrepareSoftHiZ
    l6470.o(.data) refers to l6470.o(i.L6470_PrepareHardHiZ) for L6470_PrepareHardHiZ
    l6470.o(.data) refers to l6470.o(i.L6470_PrepareGetStatus) for L6470_PrepareGetStatus
    l6470.o(.data) refers to l6470.o(i.L6470_CheckStatusRegisterFlag) for L6470_CheckStatusRegisterFlag
    stm32f4xx_hal_rcc.o(i.HAL_RCC_ClockConfig) refers to main.o(i.assert_failed) for assert_failed
    stm32f4xx_hal_rcc.o(i.HAL_RCC_ClockConfig) refers to stm32f4xx_hal.o(i.HAL_GetTick) for HAL_GetTick
    stm32f4xx_hal_rcc.o(i.HAL_RCC_ClockConfig) refers to stm32f4xx_hal.o(i.HAL_InitTick) for HAL_InitTick
    stm32f4xx_hal_rcc.o(i.HAL_RCC_GetHCLKFreq) refers to stm32f4xx_hal_rcc.o(i.HAL_RCC_GetSysClockFreq) for HAL_RCC_GetSysClockFreq
    stm32f4xx_hal_rcc.o(i.HAL_RCC_GetHCLKFreq) refers to stm32f4xx_hal_rcc.o(.constdata) for APBAHBPrescTable
    stm32f4xx_hal_rcc.o(i.HAL_RCC_GetHCLKFreq) refers to system_stm32f4xx.o(.data) for SystemCoreClock
    stm32f4xx_hal_rcc.o(i.HAL_RCC_GetPCLK1Freq) refers to stm32f4xx_hal_rcc.o(i.HAL_RCC_GetHCLKFreq) for HAL_RCC_GetHCLKFreq
    stm32f4xx_hal_rcc.o(i.HAL_RCC_GetPCLK1Freq) refers to stm32f4xx_hal_rcc.o(.constdata) for APBAHBPrescTable
    stm32f4xx_hal_rcc.o(i.HAL_RCC_GetPCLK2Freq) refers to stm32f4xx_hal_rcc.o(i.HAL_RCC_GetHCLKFreq) for HAL_RCC_GetHCLKFreq
    stm32f4xx_hal_rcc.o(i.HAL_RCC_GetPCLK2Freq) refers to stm32f4xx_hal_rcc.o(.constdata) for APBAHBPrescTable
    stm32f4xx_hal_rcc.o(i.HAL_RCC_MCOConfig) refers to main.o(i.assert_failed) for assert_failed
    stm32f4xx_hal_rcc.o(i.HAL_RCC_MCOConfig) refers to stm32f4xx_hal_gpio.o(i.HAL_GPIO_Init) for HAL_GPIO_Init
    stm32f4xx_hal_rcc.o(i.HAL_RCC_NMI_IRQHandler) refers to stm32f4xx_hal_rcc.o(i.HAL_RCC_CSSCallback) for HAL_RCC_CSSCallback
    stm32f4xx_hal_rcc.o(i.HAL_RCC_OscConfig) refers to main.o(i.assert_failed) for assert_failed
    stm32f4xx_hal_rcc.o(i.HAL_RCC_OscConfig) refers to stm32f4xx_hal.o(i.HAL_GetTick) for HAL_GetTick
    stm32f4xx_hal.o(i.HAL_DeInit) refers to stm32f4xx_hal.o(i.HAL_MspDeInit) for HAL_MspDeInit
    stm32f4xx_hal.o(i.HAL_Delay) refers to stm32f4xx_hal.o(i.HAL_GetTick) for HAL_GetTick
    stm32f4xx_hal.o(i.HAL_GetTick) refers to stm32f4xx_hal.o(.data) for uwTick
    stm32f4xx_hal.o(i.HAL_IncTick) refers to stm32f4xx_hal.o(.data) for uwTick
    stm32f4xx_hal.o(i.HAL_Init) refers to stm32f4xx_hal_cortex.o(i.HAL_NVIC_SetPriorityGrouping) for HAL_NVIC_SetPriorityGrouping
    stm32f4xx_hal.o(i.HAL_Init) refers to stm32f4xx_hal.o(i.HAL_InitTick) for HAL_InitTick
    stm32f4xx_hal.o(i.HAL_Init) refers to stm32f4xx_hal_msp.o(i.HAL_MspInit) for HAL_MspInit
    stm32f4xx_hal.o(i.HAL_InitTick) refers to stm32f4xx_hal_rcc.o(i.HAL_RCC_GetHCLKFreq) for HAL_RCC_GetHCLKFreq
    stm32f4xx_hal.o(i.HAL_InitTick) refers to stm32f4xx_hal_cortex.o(i.HAL_SYSTICK_Config) for HAL_SYSTICK_Config
    stm32f4xx_hal.o(i.HAL_InitTick) refers to stm32f4xx_hal_cortex.o(i.HAL_NVIC_SetPriority) for HAL_NVIC_SetPriority
    stm32f4xx_hal_adc_ex.o(i.ADC_MultiModeDMAConvCplt) refers to stm32f4xx_hal_adc.o(i.HAL_ADC_ConvCpltCallback) for HAL_ADC_ConvCpltCallback
    stm32f4xx_hal_adc_ex.o(i.ADC_MultiModeDMAError) refers to stm32f4xx_hal_adc.o(i.HAL_ADC_ErrorCallback) for HAL_ADC_ErrorCallback
    stm32f4xx_hal_adc_ex.o(i.ADC_MultiModeDMAHalfConvCplt) refers to stm32f4xx_hal_adc.o(i.HAL_ADC_ConvHalfCpltCallback) for HAL_ADC_ConvHalfCpltCallback
    stm32f4xx_hal_adc_ex.o(i.HAL_ADCEx_InjectedConfigChannel) refers to main.o(i.assert_failed) for assert_failed
    stm32f4xx_hal_adc_ex.o(i.HAL_ADCEx_InjectedGetValue) refers to main.o(i.assert_failed) for assert_failed
    stm32f4xx_hal_adc_ex.o(i.HAL_ADCEx_InjectedPollForConversion) refers to stm32f4xx_hal.o(i.HAL_GetTick) for HAL_GetTick
    stm32f4xx_hal_adc_ex.o(i.HAL_ADCEx_InjectedStart) refers to system_stm32f4xx.o(.data) for SystemCoreClock
    stm32f4xx_hal_adc_ex.o(i.HAL_ADCEx_InjectedStart_IT) refers to system_stm32f4xx.o(.data) for SystemCoreClock
    stm32f4xx_hal_adc_ex.o(i.HAL_ADCEx_MultiModeConfigChannel) refers to main.o(i.assert_failed) for assert_failed
    stm32f4xx_hal_adc_ex.o(i.HAL_ADCEx_MultiModeStart_DMA) refers to main.o(i.assert_failed) for assert_failed
    stm32f4xx_hal_adc_ex.o(i.HAL_ADCEx_MultiModeStart_DMA) refers to stm32f4xx_hal_dma.o(i.HAL_DMA_Start_IT) for HAL_DMA_Start_IT
    stm32f4xx_hal_adc_ex.o(i.HAL_ADCEx_MultiModeStart_DMA) refers to stm32f4xx_hal_adc_ex.o(i.ADC_MultiModeDMAConvCplt) for ADC_MultiModeDMAConvCplt
    stm32f4xx_hal_adc_ex.o(i.HAL_ADCEx_MultiModeStart_DMA) refers to stm32f4xx_hal_adc_ex.o(i.ADC_MultiModeDMAHalfConvCplt) for ADC_MultiModeDMAHalfConvCplt
    stm32f4xx_hal_adc_ex.o(i.HAL_ADCEx_MultiModeStart_DMA) refers to stm32f4xx_hal_adc_ex.o(i.ADC_MultiModeDMAError) for ADC_MultiModeDMAError
    stm32f4xx_hal_adc_ex.o(i.HAL_ADCEx_MultiModeStart_DMA) refers to system_stm32f4xx.o(.data) for SystemCoreClock
    stm32f4xx_hal_adc_ex.o(i.HAL_ADCEx_MultiModeStop_DMA) refers to stm32f4xx_hal_dma.o(i.HAL_DMA_Abort) for HAL_DMA_Abort
    stm32f4xx_hal_cortex.o(i.HAL_MPU_ConfigRegion) refers to main.o(i.assert_failed) for assert_failed
    stm32f4xx_hal_cortex.o(i.HAL_NVIC_ClearPendingIRQ) refers to main.o(i.assert_failed) for assert_failed
    stm32f4xx_hal_cortex.o(i.HAL_NVIC_DisableIRQ) refers to main.o(i.assert_failed) for assert_failed
    stm32f4xx_hal_cortex.o(i.HAL_NVIC_EnableIRQ) refers to main.o(i.assert_failed) for assert_failed
    stm32f4xx_hal_cortex.o(i.HAL_NVIC_GetActive) refers to main.o(i.assert_failed) for assert_failed
    stm32f4xx_hal_cortex.o(i.HAL_NVIC_GetPendingIRQ) refers to main.o(i.assert_failed) for assert_failed
    stm32f4xx_hal_cortex.o(i.HAL_NVIC_GetPriority) refers to main.o(i.assert_failed) for assert_failed
    stm32f4xx_hal_cortex.o(i.HAL_NVIC_GetPriorityGrouping) refers to stm32f4xx_hal_cortex.o(i.NVIC_GetPriorityGrouping) for NVIC_GetPriorityGrouping
    stm32f4xx_hal_cortex.o(i.HAL_NVIC_SetPendingIRQ) refers to main.o(i.assert_failed) for assert_failed
    stm32f4xx_hal_cortex.o(i.HAL_NVIC_SetPriority) refers to main.o(i.assert_failed) for assert_failed
    stm32f4xx_hal_cortex.o(i.HAL_NVIC_SetPriority) refers to stm32f4xx_hal_cortex.o(i.NVIC_GetPriorityGrouping) for NVIC_GetPriorityGrouping
    stm32f4xx_hal_cortex.o(i.HAL_NVIC_SetPriority) refers to stm32f4xx_hal_cortex.o(i.NVIC_SetPriority) for NVIC_SetPriority
    stm32f4xx_hal_cortex.o(i.HAL_NVIC_SetPriorityGrouping) refers to main.o(i.assert_failed) for assert_failed
    stm32f4xx_hal_cortex.o(i.HAL_SYSTICK_CLKSourceConfig) refers to main.o(i.assert_failed) for assert_failed
    stm32f4xx_hal_cortex.o(i.HAL_SYSTICK_Config) refers to stm32f4xx_hal_cortex.o(i.NVIC_SetPriority) for NVIC_SetPriority
    stm32f4xx_hal_cortex.o(i.HAL_SYSTICK_IRQHandler) refers to stm32f4xx_hal_cortex.o(i.HAL_SYSTICK_Callback) for HAL_SYSTICK_Callback
    stm32f4xx_hal_adc.o(i.ADC_DMAConvCplt) refers to stm32f4xx_hal_adc.o(i.HAL_ADC_ConvCpltCallback) for HAL_ADC_ConvCpltCallback
    stm32f4xx_hal_adc.o(i.ADC_DMAError) refers to stm32f4xx_hal_adc.o(i.HAL_ADC_ErrorCallback) for HAL_ADC_ErrorCallback
    stm32f4xx_hal_adc.o(i.ADC_DMAHalfConvCplt) refers to stm32f4xx_hal_adc.o(i.HAL_ADC_ConvHalfCpltCallback) for HAL_ADC_ConvHalfCpltCallback
    stm32f4xx_hal_adc.o(i.ADC_Init) refers to main.o(i.assert_failed) for assert_failed
    stm32f4xx_hal_adc.o(i.HAL_ADC_AnalogWDGConfig) refers to main.o(i.assert_failed) for assert_failed
    stm32f4xx_hal_adc.o(i.HAL_ADC_ConfigChannel) refers to main.o(i.assert_failed) for assert_failed
    stm32f4xx_hal_adc.o(i.HAL_ADC_ConfigChannel) refers to system_stm32f4xx.o(.data) for SystemCoreClock
    stm32f4xx_hal_adc.o(i.HAL_ADC_DeInit) refers to main.o(i.assert_failed) for assert_failed
    stm32f4xx_hal_adc.o(i.HAL_ADC_DeInit) refers to stm32f4xx_hal_msp.o(i.HAL_ADC_MspDeInit) for HAL_ADC_MspDeInit
    stm32f4xx_hal_adc.o(i.HAL_ADC_IRQHandler) refers to main.o(i.assert_failed) for assert_failed
    stm32f4xx_hal_adc.o(i.HAL_ADC_IRQHandler) refers to stm32f4xx_hal_adc.o(i.HAL_ADC_ConvCpltCallback) for HAL_ADC_ConvCpltCallback
    stm32f4xx_hal_adc.o(i.HAL_ADC_IRQHandler) refers to stm32f4xx_hal_adc_ex.o(i.HAL_ADCEx_InjectedConvCpltCallback) for HAL_ADCEx_InjectedConvCpltCallback
    stm32f4xx_hal_adc.o(i.HAL_ADC_IRQHandler) refers to stm32f4xx_hal_adc.o(i.HAL_ADC_LevelOutOfWindowCallback) for HAL_ADC_LevelOutOfWindowCallback
    stm32f4xx_hal_adc.o(i.HAL_ADC_IRQHandler) refers to stm32f4xx_hal_adc.o(i.HAL_ADC_ErrorCallback) for HAL_ADC_ErrorCallback
    stm32f4xx_hal_adc.o(i.HAL_ADC_Init) refers to main.o(i.assert_failed) for assert_failed
    stm32f4xx_hal_adc.o(i.HAL_ADC_Init) refers to stm32f4xx_hal_msp.o(i.HAL_ADC_MspInit) for HAL_ADC_MspInit
    stm32f4xx_hal_adc.o(i.HAL_ADC_Init) refers to stm32f4xx_hal_adc.o(i.ADC_Init) for ADC_Init
    stm32f4xx_hal_adc.o(i.HAL_ADC_PollForConversion) refers to stm32f4xx_hal.o(i.HAL_GetTick) for HAL_GetTick
    stm32f4xx_hal_adc.o(i.HAL_ADC_PollForEvent) refers to main.o(i.assert_failed) for assert_failed
    stm32f4xx_hal_adc.o(i.HAL_ADC_PollForEvent) refers to stm32f4xx_hal.o(i.HAL_GetTick) for HAL_GetTick
    stm32f4xx_hal_adc.o(i.HAL_ADC_Start) refers to main.o(i.assert_failed) for assert_failed
    stm32f4xx_hal_adc.o(i.HAL_ADC_Start) refers to system_stm32f4xx.o(.data) for SystemCoreClock
    stm32f4xx_hal_adc.o(i.HAL_ADC_Start_DMA) refers to main.o(i.assert_failed) for assert_failed
    stm32f4xx_hal_adc.o(i.HAL_ADC_Start_DMA) refers to stm32f4xx_hal_dma.o(i.HAL_DMA_Start_IT) for HAL_DMA_Start_IT
    stm32f4xx_hal_adc.o(i.HAL_ADC_Start_DMA) refers to stm32f4xx_hal_adc.o(i.ADC_DMAConvCplt) for ADC_DMAConvCplt
    stm32f4xx_hal_adc.o(i.HAL_ADC_Start_DMA) refers to stm32f4xx_hal_adc.o(i.ADC_DMAHalfConvCplt) for ADC_DMAHalfConvCplt
    stm32f4xx_hal_adc.o(i.HAL_ADC_Start_DMA) refers to stm32f4xx_hal_adc.o(i.ADC_DMAError) for ADC_DMAError
    stm32f4xx_hal_adc.o(i.HAL_ADC_Start_DMA) refers to system_stm32f4xx.o(.data) for SystemCoreClock
    stm32f4xx_hal_adc.o(i.HAL_ADC_Start_IT) refers to main.o(i.assert_failed) for assert_failed
    stm32f4xx_hal_adc.o(i.HAL_ADC_Start_IT) refers to system_stm32f4xx.o(.data) for SystemCoreClock
    stm32f4xx_hal_adc.o(i.HAL_ADC_Stop_DMA) refers to stm32f4xx_hal_dma.o(i.HAL_DMA_Abort) for HAL_DMA_Abort
    stm32f4xx_hal_gpio.o(i.HAL_GPIO_DeInit) refers to main.o(i.assert_failed) for assert_failed
    stm32f4xx_hal_gpio.o(i.HAL_GPIO_EXTI_IRQHandler) refers to stm32f4xx_hal_gpio.o(i.HAL_GPIO_EXTI_Callback) for HAL_GPIO_EXTI_Callback
    stm32f4xx_hal_gpio.o(i.HAL_GPIO_Init) refers to main.o(i.assert_failed) for assert_failed
    stm32f4xx_hal_gpio.o(i.HAL_GPIO_LockPin) refers to main.o(i.assert_failed) for assert_failed
    stm32f4xx_hal_gpio.o(i.HAL_GPIO_ReadPin) refers to main.o(i.assert_failed) for assert_failed
    stm32f4xx_hal_gpio.o(i.HAL_GPIO_TogglePin) refers to main.o(i.assert_failed) for assert_failed
    stm32f4xx_hal_gpio.o(i.HAL_GPIO_WritePin) refers to main.o(i.assert_failed) for assert_failed
    stm32f4xx_hal_dma.o(i.DMA_CalcBaseAndBitshift) refers to stm32f4xx_hal_dma.o(.constdata) for flagBitshiftOffset
    stm32f4xx_hal_dma.o(i.HAL_DMA_Abort) refers to stm32f4xx_hal.o(i.HAL_GetTick) for HAL_GetTick
    stm32f4xx_hal_dma.o(i.HAL_DMA_DeInit) refers to stm32f4xx_hal_dma.o(i.DMA_CalcBaseAndBitshift) for DMA_CalcBaseAndBitshift
    stm32f4xx_hal_dma.o(i.HAL_DMA_Init) refers to main.o(i.assert_failed) for assert_failed
    stm32f4xx_hal_dma.o(i.HAL_DMA_Init) refers to stm32f4xx_hal_dma.o(i.DMA_CalcBaseAndBitshift) for DMA_CalcBaseAndBitshift
    stm32f4xx_hal_dma.o(i.HAL_DMA_PollForTransfer) refers to stm32f4xx_hal.o(i.HAL_GetTick) for HAL_GetTick
    stm32f4xx_hal_dma.o(i.HAL_DMA_Start) refers to main.o(i.assert_failed) for assert_failed
    stm32f4xx_hal_dma.o(i.HAL_DMA_Start) refers to stm32f4xx_hal_dma.o(i.DMA_SetConfig) for DMA_SetConfig
    stm32f4xx_hal_dma.o(i.HAL_DMA_Start_IT) refers to main.o(i.assert_failed) for assert_failed
    stm32f4xx_hal_dma.o(i.HAL_DMA_Start_IT) refers to stm32f4xx_hal_dma.o(i.DMA_SetConfig) for DMA_SetConfig
    stm32f4xx_hal_spi.o(i.HAL_SPI_DMAStop) refers to stm32f4xx_hal_dma.o(i.HAL_DMA_Abort) for HAL_DMA_Abort
    stm32f4xx_hal_spi.o(i.HAL_SPI_DeInit) refers to stm32f4xx_hal_msp.o(i.HAL_SPI_MspDeInit) for HAL_SPI_MspDeInit
    stm32f4xx_hal_spi.o(i.HAL_SPI_IRQHandler) refers to stm32f4xx_hal_spi.o(i.HAL_SPI_ErrorCallback) for HAL_SPI_ErrorCallback
    stm32f4xx_hal_spi.o(i.HAL_SPI_Init) refers to main.o(i.assert_failed) for assert_failed
    stm32f4xx_hal_spi.o(i.HAL_SPI_Init) refers to stm32f4xx_hal_msp.o(i.HAL_SPI_MspInit) for HAL_SPI_MspInit
    stm32f4xx_hal_spi.o(i.HAL_SPI_Receive) refers to stm32f4xx_hal_spi.o(i.HAL_SPI_TransmitReceive) for HAL_SPI_TransmitReceive
    stm32f4xx_hal_spi.o(i.HAL_SPI_Receive) refers to stm32f4xx_hal_spi.o(i.SPI_WaitOnFlagUntilTimeout) for SPI_WaitOnFlagUntilTimeout
    stm32f4xx_hal_spi.o(i.HAL_SPI_Receive_DMA) refers to stm32f4xx_hal_spi.o(i.HAL_SPI_TransmitReceive_DMA) for HAL_SPI_TransmitReceive_DMA
    stm32f4xx_hal_spi.o(i.HAL_SPI_Receive_DMA) refers to stm32f4xx_hal_dma.o(i.HAL_DMA_Start_IT) for HAL_DMA_Start_IT
    stm32f4xx_hal_spi.o(i.HAL_SPI_Receive_DMA) refers to stm32f4xx_hal_spi.o(i.SPI_DMAHalfReceiveCplt) for SPI_DMAHalfReceiveCplt
    stm32f4xx_hal_spi.o(i.HAL_SPI_Receive_DMA) refers to stm32f4xx_hal_spi.o(i.SPI_DMAReceiveCplt) for SPI_DMAReceiveCplt
    stm32f4xx_hal_spi.o(i.HAL_SPI_Receive_DMA) refers to stm32f4xx_hal_spi.o(i.SPI_DMAError) for SPI_DMAError
    stm32f4xx_hal_spi.o(i.HAL_SPI_Receive_IT) refers to stm32f4xx_hal_spi.o(i.HAL_SPI_TransmitReceive_IT) for HAL_SPI_TransmitReceive_IT
    stm32f4xx_hal_spi.o(i.HAL_SPI_Receive_IT) refers to stm32f4xx_hal_spi.o(i.SPI_RxISR) for SPI_RxISR
    stm32f4xx_hal_spi.o(i.HAL_SPI_Transmit) refers to main.o(i.assert_failed) for assert_failed
    stm32f4xx_hal_spi.o(i.HAL_SPI_Transmit) refers to stm32f4xx_hal_spi.o(i.SPI_WaitOnFlagUntilTimeout) for SPI_WaitOnFlagUntilTimeout
    stm32f4xx_hal_spi.o(i.HAL_SPI_TransmitReceive) refers to main.o(i.assert_failed) for assert_failed
    stm32f4xx_hal_spi.o(i.HAL_SPI_TransmitReceive) refers to stm32f4xx_hal_spi.o(i.SPI_WaitOnFlagUntilTimeout) for SPI_WaitOnFlagUntilTimeout
    stm32f4xx_hal_spi.o(i.HAL_SPI_TransmitReceive_DMA) refers to main.o(i.assert_failed) for assert_failed
    stm32f4xx_hal_spi.o(i.HAL_SPI_TransmitReceive_DMA) refers to stm32f4xx_hal_dma.o(i.HAL_DMA_Start_IT) for HAL_DMA_Start_IT
    stm32f4xx_hal_spi.o(i.HAL_SPI_TransmitReceive_DMA) refers to stm32f4xx_hal_spi.o(i.SPI_DMAHalfReceiveCplt) for SPI_DMAHalfReceiveCplt
    stm32f4xx_hal_spi.o(i.HAL_SPI_TransmitReceive_DMA) refers to stm32f4xx_hal_spi.o(i.SPI_DMAReceiveCplt) for SPI_DMAReceiveCplt
    stm32f4xx_hal_spi.o(i.HAL_SPI_TransmitReceive_DMA) refers to stm32f4xx_hal_spi.o(i.SPI_DMAHalfTransmitReceiveCplt) for SPI_DMAHalfTransmitReceiveCplt
    stm32f4xx_hal_spi.o(i.HAL_SPI_TransmitReceive_DMA) refers to stm32f4xx_hal_spi.o(i.SPI_DMATransmitReceiveCplt) for SPI_DMATransmitReceiveCplt
    stm32f4xx_hal_spi.o(i.HAL_SPI_TransmitReceive_DMA) refers to stm32f4xx_hal_spi.o(i.SPI_DMAError) for SPI_DMAError
    stm32f4xx_hal_spi.o(i.HAL_SPI_TransmitReceive_IT) refers to main.o(i.assert_failed) for assert_failed
    stm32f4xx_hal_spi.o(i.HAL_SPI_TransmitReceive_IT) refers to stm32f4xx_hal_spi.o(i.SPI_TxISR) for SPI_TxISR
    stm32f4xx_hal_spi.o(i.HAL_SPI_TransmitReceive_IT) refers to stm32f4xx_hal_spi.o(i.SPI_2LinesRxISR) for SPI_2LinesRxISR
    stm32f4xx_hal_spi.o(i.HAL_SPI_Transmit_DMA) refers to main.o(i.assert_failed) for assert_failed
    stm32f4xx_hal_spi.o(i.HAL_SPI_Transmit_DMA) refers to stm32f4xx_hal_dma.o(i.HAL_DMA_Start_IT) for HAL_DMA_Start_IT
    stm32f4xx_hal_spi.o(i.HAL_SPI_Transmit_DMA) refers to stm32f4xx_hal_spi.o(i.SPI_DMAHalfTransmitCplt) for SPI_DMAHalfTransmitCplt
    stm32f4xx_hal_spi.o(i.HAL_SPI_Transmit_DMA) refers to stm32f4xx_hal_spi.o(i.SPI_DMATransmitCplt) for SPI_DMATransmitCplt
    stm32f4xx_hal_spi.o(i.HAL_SPI_Transmit_DMA) refers to stm32f4xx_hal_spi.o(i.SPI_DMAError) for SPI_DMAError
    stm32f4xx_hal_spi.o(i.HAL_SPI_Transmit_IT) refers to main.o(i.assert_failed) for assert_failed
    stm32f4xx_hal_spi.o(i.HAL_SPI_Transmit_IT) refers to stm32f4xx_hal_spi.o(i.SPI_TxISR) for SPI_TxISR
    stm32f4xx_hal_spi.o(i.SPI_2LinesRxISR) refers to stm32f4xx_hal_spi.o(i.SPI_RxCloseIRQHandler) for SPI_RxCloseIRQHandler
    stm32f4xx_hal_spi.o(i.SPI_DMAEndTransmitReceive) refers to stm32f4xx_hal_spi.o(i.SPI_WaitOnFlagUntilTimeout) for SPI_WaitOnFlagUntilTimeout
    stm32f4xx_hal_spi.o(i.SPI_DMAError) refers to stm32f4xx_hal_spi.o(i.HAL_SPI_ErrorCallback) for HAL_SPI_ErrorCallback
    stm32f4xx_hal_spi.o(i.SPI_DMAHalfReceiveCplt) refers to stm32f4xx_hal_spi.o(i.HAL_SPI_RxHalfCpltCallback) for HAL_SPI_RxHalfCpltCallback
    stm32f4xx_hal_spi.o(i.SPI_DMAHalfTransmitCplt) refers to stm32f4xx_hal_spi.o(i.HAL_SPI_TxHalfCpltCallback) for HAL_SPI_TxHalfCpltCallback
    stm32f4xx_hal_spi.o(i.SPI_DMAHalfTransmitReceiveCplt) refers to stm32f4xx_hal_spi.o(i.HAL_SPI_TxRxHalfCpltCallback) for HAL_SPI_TxRxHalfCpltCallback
    stm32f4xx_hal_spi.o(i.SPI_DMAReceiveCplt) refers to stm32f4xx_hal_spi.o(i.SPI_DMAEndTransmitReceive) for SPI_DMAEndTransmitReceive
    stm32f4xx_hal_spi.o(i.SPI_DMAReceiveCplt) refers to stm32f4xx_hal_spi.o(i.SPI_WaitOnFlagUntilTimeout) for SPI_WaitOnFlagUntilTimeout
    stm32f4xx_hal_spi.o(i.SPI_DMAReceiveCplt) refers to stm32f4xx_hal_spi.o(i.HAL_SPI_ErrorCallback) for HAL_SPI_ErrorCallback
    stm32f4xx_hal_spi.o(i.SPI_DMAReceiveCplt) refers to stm32f4xx_hal_spi.o(i.HAL_SPI_RxCpltCallback) for HAL_SPI_RxCpltCallback
    stm32f4xx_hal_spi.o(i.SPI_DMATransmitCplt) refers to stm32f4xx_hal_spi.o(i.SPI_WaitOnFlagUntilTimeout) for SPI_WaitOnFlagUntilTimeout
    stm32f4xx_hal_spi.o(i.SPI_DMATransmitCplt) refers to stm32f4xx_hal_spi.o(i.HAL_SPI_ErrorCallback) for HAL_SPI_ErrorCallback
    stm32f4xx_hal_spi.o(i.SPI_DMATransmitCplt) refers to stm32f4xx_hal_spi.o(i.HAL_SPI_TxCpltCallback) for HAL_SPI_TxCpltCallback
    stm32f4xx_hal_spi.o(i.SPI_DMATransmitReceiveCplt) refers to stm32f4xx_hal_spi.o(i.SPI_DMAEndTransmitReceive) for SPI_DMAEndTransmitReceive
    stm32f4xx_hal_spi.o(i.SPI_DMATransmitReceiveCplt) refers to stm32f4xx_hal_spi.o(i.HAL_SPI_ErrorCallback) for HAL_SPI_ErrorCallback
    stm32f4xx_hal_spi.o(i.SPI_DMATransmitReceiveCplt) refers to stm32f4xx_hal_spi.o(i.HAL_SPI_TxRxCpltCallback) for HAL_SPI_TxRxCpltCallback
    stm32f4xx_hal_spi.o(i.SPI_RxCloseIRQHandler) refers to stm32f4xx_hal_spi.o(i.SPI_WaitOnFlagUntilTimeout) for SPI_WaitOnFlagUntilTimeout
    stm32f4xx_hal_spi.o(i.SPI_RxCloseIRQHandler) refers to stm32f4xx_hal_spi.o(i.HAL_SPI_TxRxCpltCallback) for HAL_SPI_TxRxCpltCallback
    stm32f4xx_hal_spi.o(i.SPI_RxCloseIRQHandler) refers to stm32f4xx_hal_spi.o(i.HAL_SPI_RxCpltCallback) for HAL_SPI_RxCpltCallback
    stm32f4xx_hal_spi.o(i.SPI_RxCloseIRQHandler) refers to stm32f4xx_hal_spi.o(i.HAL_SPI_ErrorCallback) for HAL_SPI_ErrorCallback
    stm32f4xx_hal_spi.o(i.SPI_RxISR) refers to stm32f4xx_hal_spi.o(i.SPI_RxCloseIRQHandler) for SPI_RxCloseIRQHandler
    stm32f4xx_hal_spi.o(i.SPI_TxCloseIRQHandler) refers to stm32f4xx_hal_spi.o(i.SPI_WaitOnFlagUntilTimeout) for SPI_WaitOnFlagUntilTimeout
    stm32f4xx_hal_spi.o(i.SPI_TxCloseIRQHandler) refers to stm32f4xx_hal_spi.o(i.HAL_SPI_TxRxCpltCallback) for HAL_SPI_TxRxCpltCallback
    stm32f4xx_hal_spi.o(i.SPI_TxCloseIRQHandler) refers to stm32f4xx_hal_spi.o(i.HAL_SPI_TxCpltCallback) for HAL_SPI_TxCpltCallback
    stm32f4xx_hal_spi.o(i.SPI_TxCloseIRQHandler) refers to stm32f4xx_hal_spi.o(i.HAL_SPI_ErrorCallback) for HAL_SPI_ErrorCallback
    stm32f4xx_hal_spi.o(i.SPI_TxISR) refers to stm32f4xx_hal_spi.o(i.SPI_TxCloseIRQHandler) for SPI_TxCloseIRQHandler
    stm32f4xx_hal_spi.o(i.SPI_WaitOnFlagUntilTimeout) refers to stm32f4xx_hal.o(i.HAL_GetTick) for HAL_GetTick
    stm32f4xx_hal_pwr.o(i.HAL_PWR_ConfigPVD) refers to main.o(i.assert_failed) for assert_failed
    stm32f4xx_hal_pwr.o(i.HAL_PWR_DisableWakeUpPin) refers to main.o(i.assert_failed) for assert_failed
    stm32f4xx_hal_pwr.o(i.HAL_PWR_EnableWakeUpPin) refers to main.o(i.assert_failed) for assert_failed
    stm32f4xx_hal_pwr.o(i.HAL_PWR_EnterSLEEPMode) refers to main.o(i.assert_failed) for assert_failed
    stm32f4xx_hal_pwr.o(i.HAL_PWR_EnterSTOPMode) refers to main.o(i.assert_failed) for assert_failed
    stm32f4xx_hal_pwr.o(i.HAL_PWR_PVD_IRQHandler) refers to stm32f4xx_hal_pwr.o(i.HAL_PWR_PVDCallback) for HAL_PWR_PVDCallback
    stm32f4xx_hal_uart.o(i.HAL_HalfDuplex_Init) refers to main.o(i.assert_failed) for assert_failed
    stm32f4xx_hal_uart.o(i.HAL_HalfDuplex_Init) refers to stm32f4xx_hal_msp.o(i.HAL_UART_MspInit) for HAL_UART_MspInit
    stm32f4xx_hal_uart.o(i.HAL_HalfDuplex_Init) refers to stm32f4xx_hal_uart.o(i.UART_SetConfig) for UART_SetConfig
    stm32f4xx_hal_uart.o(i.HAL_LIN_Init) refers to main.o(i.assert_failed) for assert_failed
    stm32f4xx_hal_uart.o(i.HAL_LIN_Init) refers to stm32f4xx_hal_msp.o(i.HAL_UART_MspInit) for HAL_UART_MspInit
    stm32f4xx_hal_uart.o(i.HAL_LIN_Init) refers to stm32f4xx_hal_uart.o(i.UART_SetConfig) for UART_SetConfig
    stm32f4xx_hal_uart.o(i.HAL_LIN_SendBreak) refers to main.o(i.assert_failed) for assert_failed
    stm32f4xx_hal_uart.o(i.HAL_MultiProcessor_EnterMuteMode) refers to main.o(i.assert_failed) for assert_failed
    stm32f4xx_hal_uart.o(i.HAL_MultiProcessor_ExitMuteMode) refers to main.o(i.assert_failed) for assert_failed
    stm32f4xx_hal_uart.o(i.HAL_MultiProcessor_Init) refers to main.o(i.assert_failed) for assert_failed
    stm32f4xx_hal_uart.o(i.HAL_MultiProcessor_Init) refers to stm32f4xx_hal_msp.o(i.HAL_UART_MspInit) for HAL_UART_MspInit
    stm32f4xx_hal_uart.o(i.HAL_MultiProcessor_Init) refers to stm32f4xx_hal_uart.o(i.UART_SetConfig) for UART_SetConfig
    stm32f4xx_hal_uart.o(i.HAL_UART_DMAStop) refers to stm32f4xx_hal_dma.o(i.HAL_DMA_Abort) for HAL_DMA_Abort
    stm32f4xx_hal_uart.o(i.HAL_UART_DeInit) refers to main.o(i.assert_failed) for assert_failed
    stm32f4xx_hal_uart.o(i.HAL_UART_DeInit) refers to stm32f4xx_hal_msp.o(i.HAL_UART_MspDeInit) for HAL_UART_MspDeInit
    stm32f4xx_hal_uart.o(i.HAL_UART_IRQHandler) refers to stm32f4xx_hal_uart.o(i.UART_Receive_IT) for UART_Receive_IT
    stm32f4xx_hal_uart.o(i.HAL_UART_IRQHandler) refers to stm32f4xx_hal_uart.o(i.UART_Transmit_IT) for UART_Transmit_IT
    stm32f4xx_hal_uart.o(i.HAL_UART_IRQHandler) refers to stm32f4xx_hal_uart.o(i.UART_EndTransmit_IT) for UART_EndTransmit_IT
    stm32f4xx_hal_uart.o(i.HAL_UART_IRQHandler) refers to stm32f4xx_hal_uart.o(i.HAL_UART_ErrorCallback) for HAL_UART_ErrorCallback
    stm32f4xx_hal_uart.o(i.HAL_UART_Init) refers to main.o(i.assert_failed) for assert_failed
    stm32f4xx_hal_uart.o(i.HAL_UART_Init) refers to stm32f4xx_hal_msp.o(i.HAL_UART_MspInit) for HAL_UART_MspInit
    stm32f4xx_hal_uart.o(i.HAL_UART_Init) refers to stm32f4xx_hal_uart.o(i.UART_SetConfig) for UART_SetConfig
    stm32f4xx_hal_uart.o(i.HAL_UART_Receive) refers to stm32f4xx_hal_uart.o(i.UART_WaitOnFlagUntilTimeout) for UART_WaitOnFlagUntilTimeout
    stm32f4xx_hal_uart.o(i.HAL_UART_Receive_DMA) refers to stm32f4xx_hal_dma.o(i.HAL_DMA_Start_IT) for HAL_DMA_Start_IT
    stm32f4xx_hal_uart.o(i.HAL_UART_Receive_DMA) refers to stm32f4xx_hal_uart.o(i.UART_DMAReceiveCplt) for UART_DMAReceiveCplt
    stm32f4xx_hal_uart.o(i.HAL_UART_Receive_DMA) refers to stm32f4xx_hal_uart.o(i.UART_DMARxHalfCplt) for UART_DMARxHalfCplt
    stm32f4xx_hal_uart.o(i.HAL_UART_Receive_DMA) refers to stm32f4xx_hal_uart.o(i.UART_DMAError) for UART_DMAError
    stm32f4xx_hal_uart.o(i.HAL_UART_Transmit) refers to stm32f4xx_hal_uart.o(i.UART_WaitOnFlagUntilTimeout) for UART_WaitOnFlagUntilTimeout
    stm32f4xx_hal_uart.o(i.HAL_UART_Transmit_DMA) refers to stm32f4xx_hal_dma.o(i.HAL_DMA_Start_IT) for HAL_DMA_Start_IT
    stm32f4xx_hal_uart.o(i.HAL_UART_Transmit_DMA) refers to stm32f4xx_hal_uart.o(i.UART_DMATransmitCplt) for UART_DMATransmitCplt
    stm32f4xx_hal_uart.o(i.HAL_UART_Transmit_DMA) refers to stm32f4xx_hal_uart.o(i.UART_DMATxHalfCplt) for UART_DMATxHalfCplt
    stm32f4xx_hal_uart.o(i.HAL_UART_Transmit_DMA) refers to stm32f4xx_hal_uart.o(i.UART_DMAError) for UART_DMAError
    stm32f4xx_hal_uart.o(i.UART_DMAError) refers to stm32f4xx_hal_uart.o(i.HAL_UART_ErrorCallback) for HAL_UART_ErrorCallback
    stm32f4xx_hal_uart.o(i.UART_DMAReceiveCplt) refers to stm32f4xx_hal_uart.o(i.HAL_UART_RxCpltCallback) for HAL_UART_RxCpltCallback
    stm32f4xx_hal_uart.o(i.UART_DMARxHalfCplt) refers to stm32f4xx_hal_uart.o(i.HAL_UART_RxHalfCpltCallback) for HAL_UART_RxHalfCpltCallback
    stm32f4xx_hal_uart.o(i.UART_DMATransmitCplt) refers to stm32f4xx_hal_uart.o(i.HAL_UART_TxCpltCallback) for HAL_UART_TxCpltCallback
    stm32f4xx_hal_uart.o(i.UART_DMATxHalfCplt) refers to stm32f4xx_hal_uart.o(i.HAL_UART_TxHalfCpltCallback) for HAL_UART_TxHalfCpltCallback
    stm32f4xx_hal_uart.o(i.UART_EndTransmit_IT) refers to stm32f4xx_hal_uart.o(i.HAL_UART_TxCpltCallback) for HAL_UART_TxCpltCallback
    stm32f4xx_hal_uart.o(i.UART_Receive_IT) refers to stm32f4xx_hal_uart.o(i.HAL_UART_RxCpltCallback) for HAL_UART_RxCpltCallback
    stm32f4xx_hal_uart.o(i.UART_SetConfig) refers to main.o(i.assert_failed) for assert_failed
    stm32f4xx_hal_uart.o(i.UART_SetConfig) refers to stm32f4xx_hal_rcc.o(i.HAL_RCC_GetPCLK2Freq) for HAL_RCC_GetPCLK2Freq
    stm32f4xx_hal_uart.o(i.UART_SetConfig) refers to stm32f4xx_hal_rcc.o(i.HAL_RCC_GetPCLK1Freq) for HAL_RCC_GetPCLK1Freq
    stm32f4xx_hal_uart.o(i.UART_WaitOnFlagUntilTimeout) refers to stm32f4xx_hal.o(i.HAL_GetTick) for HAL_GetTick
    stm32f4xx_hal_dma_ex.o(i.HAL_DMAEx_MultiBufferStart) refers to main.o(i.assert_failed) for assert_failed
    stm32f4xx_hal_dma_ex.o(i.HAL_DMAEx_MultiBufferStart) refers to stm32f4xx_hal_dma_ex.o(i.DMA_MultiBufferSetConfig) for DMA_MultiBufferSetConfig
    stm32f4xx_hal_dma_ex.o(i.HAL_DMAEx_MultiBufferStart_IT) refers to main.o(i.assert_failed) for assert_failed
    stm32f4xx_hal_dma_ex.o(i.HAL_DMAEx_MultiBufferStart_IT) refers to stm32f4xx_hal_dma_ex.o(i.DMA_MultiBufferSetConfig) for DMA_MultiBufferSetConfig
    stm32f4xx_hal_flash_ex.o(i.FLASH_Erase_Sector) refers to main.o(i.assert_failed) for assert_failed
    stm32f4xx_hal_flash_ex.o(i.FLASH_MassErase) refers to main.o(i.assert_failed) for assert_failed
    stm32f4xx_hal_flash_ex.o(i.FLASH_OB_BOR_LevelConfig) refers to main.o(i.assert_failed) for assert_failed
    stm32f4xx_hal_flash_ex.o(i.FLASH_OB_DisablePCROP) refers to main.o(i.assert_failed) for assert_failed
    stm32f4xx_hal_flash_ex.o(i.FLASH_OB_DisablePCROP) refers to stm32f4xx_hal_flash.o(i.FLASH_WaitForLastOperation) for FLASH_WaitForLastOperation
    stm32f4xx_hal_flash_ex.o(i.FLASH_OB_DisableWRP) refers to main.o(i.assert_failed) for assert_failed
    stm32f4xx_hal_flash_ex.o(i.FLASH_OB_DisableWRP) refers to stm32f4xx_hal_flash.o(i.FLASH_WaitForLastOperation) for FLASH_WaitForLastOperation
    stm32f4xx_hal_flash_ex.o(i.FLASH_OB_EnablePCROP) refers to main.o(i.assert_failed) for assert_failed
    stm32f4xx_hal_flash_ex.o(i.FLASH_OB_EnablePCROP) refers to stm32f4xx_hal_flash.o(i.FLASH_WaitForLastOperation) for FLASH_WaitForLastOperation
    stm32f4xx_hal_flash_ex.o(i.FLASH_OB_EnableWRP) refers to main.o(i.assert_failed) for assert_failed
    stm32f4xx_hal_flash_ex.o(i.FLASH_OB_EnableWRP) refers to stm32f4xx_hal_flash.o(i.FLASH_WaitForLastOperation) for FLASH_WaitForLastOperation
    stm32f4xx_hal_flash_ex.o(i.FLASH_OB_RDP_LevelConfig) refers to main.o(i.assert_failed) for assert_failed
    stm32f4xx_hal_flash_ex.o(i.FLASH_OB_RDP_LevelConfig) refers to stm32f4xx_hal_flash.o(i.FLASH_WaitForLastOperation) for FLASH_WaitForLastOperation
    stm32f4xx_hal_flash_ex.o(i.FLASH_OB_UserConfig) refers to main.o(i.assert_failed) for assert_failed
    stm32f4xx_hal_flash_ex.o(i.FLASH_OB_UserConfig) refers to stm32f4xx_hal_flash.o(i.FLASH_WaitForLastOperation) for FLASH_WaitForLastOperation
    stm32f4xx_hal_flash_ex.o(i.HAL_FLASHEx_AdvOBProgram) refers to main.o(i.assert_failed) for assert_failed
    stm32f4xx_hal_flash_ex.o(i.HAL_FLASHEx_AdvOBProgram) refers to stm32f4xx_hal_flash_ex.o(i.FLASH_OB_EnablePCROP) for FLASH_OB_EnablePCROP
    stm32f4xx_hal_flash_ex.o(i.HAL_FLASHEx_AdvOBProgram) refers to stm32f4xx_hal_flash_ex.o(i.FLASH_OB_DisablePCROP) for FLASH_OB_DisablePCROP
    stm32f4xx_hal_flash_ex.o(i.HAL_FLASHEx_Erase) refers to main.o(i.assert_failed) for assert_failed
    stm32f4xx_hal_flash_ex.o(i.HAL_FLASHEx_Erase) refers to stm32f4xx_hal_flash.o(i.FLASH_WaitForLastOperation) for FLASH_WaitForLastOperation
    stm32f4xx_hal_flash_ex.o(i.HAL_FLASHEx_Erase) refers to stm32f4xx_hal_flash_ex.o(i.FLASH_MassErase) for FLASH_MassErase
    stm32f4xx_hal_flash_ex.o(i.HAL_FLASHEx_Erase) refers to stm32f4xx_hal_flash_ex.o(i.FLASH_Erase_Sector) for FLASH_Erase_Sector
    stm32f4xx_hal_flash_ex.o(i.HAL_FLASHEx_Erase) refers to stm32f4xx_hal_flash_ex.o(i.FLASH_FlushCaches) for FLASH_FlushCaches
    stm32f4xx_hal_flash_ex.o(i.HAL_FLASHEx_Erase) refers to stm32f4xx_hal_flash.o(.bss) for pFlash
    stm32f4xx_hal_flash_ex.o(i.HAL_FLASHEx_Erase_IT) refers to main.o(i.assert_failed) for assert_failed
    stm32f4xx_hal_flash_ex.o(i.HAL_FLASHEx_Erase_IT) refers to stm32f4xx_hal_flash_ex.o(i.FLASH_MassErase) for FLASH_MassErase
    stm32f4xx_hal_flash_ex.o(i.HAL_FLASHEx_Erase_IT) refers to stm32f4xx_hal_flash_ex.o(i.FLASH_Erase_Sector) for FLASH_Erase_Sector
    stm32f4xx_hal_flash_ex.o(i.HAL_FLASHEx_Erase_IT) refers to stm32f4xx_hal_flash.o(.bss) for pFlash
    stm32f4xx_hal_flash_ex.o(i.HAL_FLASHEx_OBGetConfig) refers to stm32f4xx_hal_flash_ex.o(i.FLASH_OB_GetWRP) for FLASH_OB_GetWRP
    stm32f4xx_hal_flash_ex.o(i.HAL_FLASHEx_OBGetConfig) refers to stm32f4xx_hal_flash_ex.o(i.FLASH_OB_GetRDP) for FLASH_OB_GetRDP
    stm32f4xx_hal_flash_ex.o(i.HAL_FLASHEx_OBGetConfig) refers to stm32f4xx_hal_flash_ex.o(i.FLASH_OB_GetUser) for FLASH_OB_GetUser
    stm32f4xx_hal_flash_ex.o(i.HAL_FLASHEx_OBGetConfig) refers to stm32f4xx_hal_flash_ex.o(i.FLASH_OB_GetBOR) for FLASH_OB_GetBOR
    stm32f4xx_hal_flash_ex.o(i.HAL_FLASHEx_OBProgram) refers to main.o(i.assert_failed) for assert_failed
    stm32f4xx_hal_flash_ex.o(i.HAL_FLASHEx_OBProgram) refers to stm32f4xx_hal_flash_ex.o(i.FLASH_OB_EnableWRP) for FLASH_OB_EnableWRP
    stm32f4xx_hal_flash_ex.o(i.HAL_FLASHEx_OBProgram) refers to stm32f4xx_hal_flash_ex.o(i.FLASH_OB_DisableWRP) for FLASH_OB_DisableWRP
    stm32f4xx_hal_flash_ex.o(i.HAL_FLASHEx_OBProgram) refers to stm32f4xx_hal_flash_ex.o(i.FLASH_OB_RDP_LevelConfig) for FLASH_OB_RDP_LevelConfig
    stm32f4xx_hal_flash_ex.o(i.HAL_FLASHEx_OBProgram) refers to stm32f4xx_hal_flash_ex.o(i.FLASH_OB_UserConfig) for FLASH_OB_UserConfig
    stm32f4xx_hal_flash_ex.o(i.HAL_FLASHEx_OBProgram) refers to stm32f4xx_hal_flash_ex.o(i.FLASH_OB_BOR_LevelConfig) for FLASH_OB_BOR_LevelConfig
    stm32f4xx_hal_flash_ex.o(i.HAL_FLASHEx_OBProgram) refers to stm32f4xx_hal_flash.o(.bss) for pFlash
    stm32f4xx_hal_pwr_ex.o(i.HAL_PWREx_ControlVoltageScaling) refers to main.o(i.assert_failed) for assert_failed
    stm32f4xx_hal_pwr_ex.o(i.HAL_PWREx_ControlVoltageScaling) refers to stm32f4xx_hal.o(i.HAL_GetTick) for HAL_GetTick
    stm32f4xx_hal_pwr_ex.o(i.HAL_PWREx_DisableBkUpReg) refers to stm32f4xx_hal.o(i.HAL_GetTick) for HAL_GetTick
    stm32f4xx_hal_pwr_ex.o(i.HAL_PWREx_EnableBkUpReg) refers to stm32f4xx_hal.o(i.HAL_GetTick) for HAL_GetTick
    stm32f4xx_hal_rcc_ex.o(i.HAL_RCCEx_PeriphCLKConfig) refers to main.o(i.assert_failed) for assert_failed
    stm32f4xx_hal_rcc_ex.o(i.HAL_RCCEx_PeriphCLKConfig) refers to stm32f4xx_hal.o(i.HAL_GetTick) for HAL_GetTick
    stm32f4xx_hal_flash.o(i.FLASH_Program_Byte) refers to main.o(i.assert_failed) for assert_failed
    stm32f4xx_hal_flash.o(i.FLASH_Program_DoubleWord) refers to main.o(i.assert_failed) for assert_failed
    stm32f4xx_hal_flash.o(i.FLASH_Program_HalfWord) refers to main.o(i.assert_failed) for assert_failed
    stm32f4xx_hal_flash.o(i.FLASH_Program_Word) refers to main.o(i.assert_failed) for assert_failed
    stm32f4xx_hal_flash.o(i.FLASH_SetErrorCode) refers to stm32f4xx_hal_flash.o(.bss) for pFlash
    stm32f4xx_hal_flash.o(i.FLASH_WaitForLastOperation) refers to stm32f4xx_hal.o(i.HAL_GetTick) for HAL_GetTick
    stm32f4xx_hal_flash.o(i.FLASH_WaitForLastOperation) refers to stm32f4xx_hal_flash.o(i.FLASH_SetErrorCode) for FLASH_SetErrorCode
    stm32f4xx_hal_flash.o(i.FLASH_WaitForLastOperation) refers to stm32f4xx_hal_flash.o(.bss) for pFlash
    stm32f4xx_hal_flash.o(i.HAL_FLASH_GetError) refers to stm32f4xx_hal_flash.o(.bss) for pFlash
    stm32f4xx_hal_flash.o(i.HAL_FLASH_IRQHandler) refers to stm32f4xx_hal_flash.o(i.FLASH_SetErrorCode) for FLASH_SetErrorCode
    stm32f4xx_hal_flash.o(i.HAL_FLASH_IRQHandler) refers to stm32f4xx_hal_flash.o(i.HAL_FLASH_OperationErrorCallback) for HAL_FLASH_OperationErrorCallback
    stm32f4xx_hal_flash.o(i.HAL_FLASH_IRQHandler) refers to stm32f4xx_hal_flash.o(i.HAL_FLASH_EndOfOperationCallback) for HAL_FLASH_EndOfOperationCallback
    stm32f4xx_hal_flash.o(i.HAL_FLASH_IRQHandler) refers to stm32f4xx_hal_flash_ex.o(i.FLASH_Erase_Sector) for FLASH_Erase_Sector
    stm32f4xx_hal_flash.o(i.HAL_FLASH_IRQHandler) refers to stm32f4xx_hal_flash_ex.o(i.FLASH_FlushCaches) for FLASH_FlushCaches
    stm32f4xx_hal_flash.o(i.HAL_FLASH_IRQHandler) refers to stm32f4xx_hal_flash.o(.bss) for pFlash
    stm32f4xx_hal_flash.o(i.HAL_FLASH_OB_Launch) refers to stm32f4xx_hal_flash.o(i.FLASH_WaitForLastOperation) for FLASH_WaitForLastOperation
    stm32f4xx_hal_flash.o(i.HAL_FLASH_Program) refers to main.o(i.assert_failed) for assert_failed
    stm32f4xx_hal_flash.o(i.HAL_FLASH_Program) refers to stm32f4xx_hal_flash.o(i.FLASH_WaitForLastOperation) for FLASH_WaitForLastOperation
    stm32f4xx_hal_flash.o(i.HAL_FLASH_Program) refers to stm32f4xx_hal_flash.o(i.FLASH_Program_Byte) for FLASH_Program_Byte
    stm32f4xx_hal_flash.o(i.HAL_FLASH_Program) refers to stm32f4xx_hal_flash.o(i.FLASH_Program_HalfWord) for FLASH_Program_HalfWord
    stm32f4xx_hal_flash.o(i.HAL_FLASH_Program) refers to stm32f4xx_hal_flash.o(i.FLASH_Program_Word) for FLASH_Program_Word
    stm32f4xx_hal_flash.o(i.HAL_FLASH_Program) refers to stm32f4xx_hal_flash.o(i.FLASH_Program_DoubleWord) for FLASH_Program_DoubleWord
    stm32f4xx_hal_flash.o(i.HAL_FLASH_Program) refers to stm32f4xx_hal_flash.o(.bss) for pFlash
    stm32f4xx_hal_flash.o(i.HAL_FLASH_Program_IT) refers to main.o(i.assert_failed) for assert_failed
    stm32f4xx_hal_flash.o(i.HAL_FLASH_Program_IT) refers to stm32f4xx_hal_flash.o(i.FLASH_Program_Byte) for FLASH_Program_Byte
    stm32f4xx_hal_flash.o(i.HAL_FLASH_Program_IT) refers to stm32f4xx_hal_flash.o(i.FLASH_Program_HalfWord) for FLASH_Program_HalfWord
    stm32f4xx_hal_flash.o(i.HAL_FLASH_Program_IT) refers to stm32f4xx_hal_flash.o(i.FLASH_Program_Word) for FLASH_Program_Word
    stm32f4xx_hal_flash.o(i.HAL_FLASH_Program_IT) refers to stm32f4xx_hal_flash.o(i.FLASH_Program_DoubleWord) for FLASH_Program_DoubleWord
    stm32f4xx_hal_flash.o(i.HAL_FLASH_Program_IT) refers to stm32f4xx_hal_flash.o(.bss) for pFlash
    stm32f4xx_hal_tim.o(i.HAL_TIM_Base_DeInit) refers to main.o(i.assert_failed) for assert_failed
    stm32f4xx_hal_tim.o(i.HAL_TIM_Base_DeInit) refers to stm32f4xx_hal_tim.o(i.HAL_TIM_Base_MspDeInit) for HAL_TIM_Base_MspDeInit
    stm32f4xx_hal_tim.o(i.HAL_TIM_Base_Init) refers to main.o(i.assert_failed) for assert_failed
    stm32f4xx_hal_tim.o(i.HAL_TIM_Base_Init) refers to stm32f4xx_hal_tim.o(i.HAL_TIM_Base_MspInit) for HAL_TIM_Base_MspInit
    stm32f4xx_hal_tim.o(i.HAL_TIM_Base_Init) refers to stm32f4xx_hal_tim.o(i.TIM_Base_SetConfig) for TIM_Base_SetConfig
    stm32f4xx_hal_tim.o(i.HAL_TIM_Base_Start) refers to main.o(i.assert_failed) for assert_failed
    stm32f4xx_hal_tim.o(i.HAL_TIM_Base_Start_DMA) refers to main.o(i.assert_failed) for assert_failed
    stm32f4xx_hal_tim.o(i.HAL_TIM_Base_Start_DMA) refers to stm32f4xx_hal_dma.o(i.HAL_DMA_Start_IT) for HAL_DMA_Start_IT
    stm32f4xx_hal_tim.o(i.HAL_TIM_Base_Start_DMA) refers to stm32f4xx_hal_tim.o(i.TIM_DMAPeriodElapsedCplt) for TIM_DMAPeriodElapsedCplt
    stm32f4xx_hal_tim.o(i.HAL_TIM_Base_Start_DMA) refers to stm32f4xx_hal_tim.o(i.TIM_DMAError) for TIM_DMAError
    stm32f4xx_hal_tim.o(i.HAL_TIM_Base_Start_IT) refers to main.o(i.assert_failed) for assert_failed
    stm32f4xx_hal_tim.o(i.HAL_TIM_Base_Stop) refers to main.o(i.assert_failed) for assert_failed
    stm32f4xx_hal_tim.o(i.HAL_TIM_Base_Stop_DMA) refers to main.o(i.assert_failed) for assert_failed
    stm32f4xx_hal_tim.o(i.HAL_TIM_Base_Stop_IT) refers to main.o(i.assert_failed) for assert_failed
    stm32f4xx_hal_tim.o(i.HAL_TIM_ConfigClockSource) refers to main.o(i.assert_failed) for assert_failed
    stm32f4xx_hal_tim.o(i.HAL_TIM_ConfigClockSource) refers to stm32f4xx_hal_tim.o(i.TIM_ETR_SetConfig) for TIM_ETR_SetConfig
    stm32f4xx_hal_tim.o(i.HAL_TIM_ConfigClockSource) refers to stm32f4xx_hal_tim.o(i.TIM_TI1_ConfigInputStage) for TIM_TI1_ConfigInputStage
    stm32f4xx_hal_tim.o(i.HAL_TIM_ConfigClockSource) refers to stm32f4xx_hal_tim.o(i.TIM_ITRx_SetConfig) for TIM_ITRx_SetConfig
    stm32f4xx_hal_tim.o(i.HAL_TIM_ConfigClockSource) refers to stm32f4xx_hal_tim.o(i.TIM_TI2_ConfigInputStage) for TIM_TI2_ConfigInputStage
    stm32f4xx_hal_tim.o(i.HAL_TIM_ConfigOCrefClear) refers to main.o(i.assert_failed) for assert_failed
    stm32f4xx_hal_tim.o(i.HAL_TIM_ConfigOCrefClear) refers to stm32f4xx_hal_tim.o(i.TIM_ETR_SetConfig) for TIM_ETR_SetConfig
    stm32f4xx_hal_tim.o(i.HAL_TIM_ConfigTI1Input) refers to main.o(i.assert_failed) for assert_failed
    stm32f4xx_hal_tim.o(i.HAL_TIM_DMABurst_ReadStart) refers to main.o(i.assert_failed) for assert_failed
    stm32f4xx_hal_tim.o(i.HAL_TIM_DMABurst_ReadStart) refers to stm32f4xx_hal_dma.o(i.HAL_DMA_Start_IT) for HAL_DMA_Start_IT
    stm32f4xx_hal_tim.o(i.HAL_TIM_DMABurst_ReadStart) refers to stm32f4xx_hal_tim.o(i.TIM_DMAPeriodElapsedCplt) for TIM_DMAPeriodElapsedCplt
    stm32f4xx_hal_tim.o(i.HAL_TIM_DMABurst_ReadStart) refers to stm32f4xx_hal_tim.o(i.TIM_DMAError) for TIM_DMAError
    stm32f4xx_hal_tim.o(i.HAL_TIM_DMABurst_ReadStart) refers to stm32f4xx_hal_tim.o(i.TIM_DMACaptureCplt) for TIM_DMACaptureCplt
    stm32f4xx_hal_tim.o(i.HAL_TIM_DMABurst_ReadStart) refers to stm32f4xx_hal_tim_ex.o(i.TIMEx_DMACommutationCplt) for TIMEx_DMACommutationCplt
    stm32f4xx_hal_tim.o(i.HAL_TIM_DMABurst_ReadStart) refers to stm32f4xx_hal_tim.o(i.TIM_DMATriggerCplt) for TIM_DMATriggerCplt
    stm32f4xx_hal_tim.o(i.HAL_TIM_DMABurst_ReadStop) refers to main.o(i.assert_failed) for assert_failed
    stm32f4xx_hal_tim.o(i.HAL_TIM_DMABurst_ReadStop) refers to stm32f4xx_hal_dma.o(i.HAL_DMA_Abort) for HAL_DMA_Abort
    stm32f4xx_hal_tim.o(i.HAL_TIM_DMABurst_WriteStart) refers to main.o(i.assert_failed) for assert_failed
    stm32f4xx_hal_tim.o(i.HAL_TIM_DMABurst_WriteStart) refers to stm32f4xx_hal_dma.o(i.HAL_DMA_Start_IT) for HAL_DMA_Start_IT
    stm32f4xx_hal_tim.o(i.HAL_TIM_DMABurst_WriteStart) refers to stm32f4xx_hal_tim.o(i.TIM_DMAPeriodElapsedCplt) for TIM_DMAPeriodElapsedCplt
    stm32f4xx_hal_tim.o(i.HAL_TIM_DMABurst_WriteStart) refers to stm32f4xx_hal_tim.o(i.TIM_DMAError) for TIM_DMAError
    stm32f4xx_hal_tim.o(i.HAL_TIM_DMABurst_WriteStart) refers to stm32f4xx_hal_tim.o(i.TIM_DMADelayPulseCplt) for TIM_DMADelayPulseCplt
    stm32f4xx_hal_tim.o(i.HAL_TIM_DMABurst_WriteStart) refers to stm32f4xx_hal_tim_ex.o(i.TIMEx_DMACommutationCplt) for TIMEx_DMACommutationCplt
    stm32f4xx_hal_tim.o(i.HAL_TIM_DMABurst_WriteStart) refers to stm32f4xx_hal_tim.o(i.TIM_DMATriggerCplt) for TIM_DMATriggerCplt
    stm32f4xx_hal_tim.o(i.HAL_TIM_DMABurst_WriteStop) refers to main.o(i.assert_failed) for assert_failed
    stm32f4xx_hal_tim.o(i.HAL_TIM_DMABurst_WriteStop) refers to stm32f4xx_hal_dma.o(i.HAL_DMA_Abort) for HAL_DMA_Abort
    stm32f4xx_hal_tim.o(i.HAL_TIM_Encoder_DeInit) refers to main.o(i.assert_failed) for assert_failed
    stm32f4xx_hal_tim.o(i.HAL_TIM_Encoder_DeInit) refers to stm32f4xx_hal_tim.o(i.HAL_TIM_Encoder_MspDeInit) for HAL_TIM_Encoder_MspDeInit
    stm32f4xx_hal_tim.o(i.HAL_TIM_Encoder_Init) refers to main.o(i.assert_failed) for assert_failed
    stm32f4xx_hal_tim.o(i.HAL_TIM_Encoder_Init) refers to stm32f4xx_hal_tim.o(i.HAL_TIM_Encoder_MspInit) for HAL_TIM_Encoder_MspInit
    stm32f4xx_hal_tim.o(i.HAL_TIM_Encoder_Init) refers to stm32f4xx_hal_tim.o(i.TIM_Base_SetConfig) for TIM_Base_SetConfig
    stm32f4xx_hal_tim.o(i.HAL_TIM_Encoder_Start) refers to main.o(i.assert_failed) for assert_failed
    stm32f4xx_hal_tim.o(i.HAL_TIM_Encoder_Start) refers to stm32f4xx_hal_tim.o(i.TIM_CCxChannelCmd) for TIM_CCxChannelCmd
    stm32f4xx_hal_tim.o(i.HAL_TIM_Encoder_Start_DMA) refers to main.o(i.assert_failed) for assert_failed
    stm32f4xx_hal_tim.o(i.HAL_TIM_Encoder_Start_DMA) refers to stm32f4xx_hal_dma.o(i.HAL_DMA_Start_IT) for HAL_DMA_Start_IT
    stm32f4xx_hal_tim.o(i.HAL_TIM_Encoder_Start_DMA) refers to stm32f4xx_hal_tim.o(i.TIM_CCxChannelCmd) for TIM_CCxChannelCmd
    stm32f4xx_hal_tim.o(i.HAL_TIM_Encoder_Start_DMA) refers to stm32f4xx_hal_tim.o(i.TIM_DMACaptureCplt) for TIM_DMACaptureCplt
    stm32f4xx_hal_tim.o(i.HAL_TIM_Encoder_Start_DMA) refers to stm32f4xx_hal_tim.o(i.TIM_DMAError) for TIM_DMAError
    stm32f4xx_hal_tim.o(i.HAL_TIM_Encoder_Start_IT) refers to main.o(i.assert_failed) for assert_failed
    stm32f4xx_hal_tim.o(i.HAL_TIM_Encoder_Start_IT) refers to stm32f4xx_hal_tim.o(i.TIM_CCxChannelCmd) for TIM_CCxChannelCmd
    stm32f4xx_hal_tim.o(i.HAL_TIM_Encoder_Stop) refers to main.o(i.assert_failed) for assert_failed
    stm32f4xx_hal_tim.o(i.HAL_TIM_Encoder_Stop) refers to stm32f4xx_hal_tim.o(i.TIM_CCxChannelCmd) for TIM_CCxChannelCmd
    stm32f4xx_hal_tim.o(i.HAL_TIM_Encoder_Stop_DMA) refers to main.o(i.assert_failed) for assert_failed
    stm32f4xx_hal_tim.o(i.HAL_TIM_Encoder_Stop_DMA) refers to stm32f4xx_hal_tim.o(i.TIM_CCxChannelCmd) for TIM_CCxChannelCmd
    stm32f4xx_hal_tim.o(i.HAL_TIM_Encoder_Stop_IT) refers to main.o(i.assert_failed) for assert_failed
    stm32f4xx_hal_tim.o(i.HAL_TIM_Encoder_Stop_IT) refers to stm32f4xx_hal_tim.o(i.TIM_CCxChannelCmd) for TIM_CCxChannelCmd
    stm32f4xx_hal_tim.o(i.HAL_TIM_GenerateEvent) refers to main.o(i.assert_failed) for assert_failed
    stm32f4xx_hal_tim.o(i.HAL_TIM_IC_ConfigChannel) refers to main.o(i.assert_failed) for assert_failed
    stm32f4xx_hal_tim.o(i.HAL_TIM_IC_ConfigChannel) refers to stm32f4xx_hal_tim.o(i.TIM_TI1_SetConfig) for TIM_TI1_SetConfig
    stm32f4xx_hal_tim.o(i.HAL_TIM_IC_ConfigChannel) refers to stm32f4xx_hal_tim.o(i.TIM_TI2_SetConfig) for TIM_TI2_SetConfig
    stm32f4xx_hal_tim.o(i.HAL_TIM_IC_ConfigChannel) refers to stm32f4xx_hal_tim.o(i.TIM_TI3_SetConfig) for TIM_TI3_SetConfig
    stm32f4xx_hal_tim.o(i.HAL_TIM_IC_ConfigChannel) refers to stm32f4xx_hal_tim.o(i.TIM_TI4_SetConfig) for TIM_TI4_SetConfig
    stm32f4xx_hal_tim.o(i.HAL_TIM_IC_DeInit) refers to main.o(i.assert_failed) for assert_failed
    stm32f4xx_hal_tim.o(i.HAL_TIM_IC_DeInit) refers to stm32f4xx_hal_tim.o(i.HAL_TIM_IC_MspDeInit) for HAL_TIM_IC_MspDeInit
    stm32f4xx_hal_tim.o(i.HAL_TIM_IC_Init) refers to main.o(i.assert_failed) for assert_failed
    stm32f4xx_hal_tim.o(i.HAL_TIM_IC_Init) refers to stm32f4xx_hal_tim.o(i.HAL_TIM_IC_MspInit) for HAL_TIM_IC_MspInit
    stm32f4xx_hal_tim.o(i.HAL_TIM_IC_Init) refers to stm32f4xx_hal_tim.o(i.TIM_Base_SetConfig) for TIM_Base_SetConfig
    stm32f4xx_hal_tim.o(i.HAL_TIM_IC_Start) refers to main.o(i.assert_failed) for assert_failed
    stm32f4xx_hal_tim.o(i.HAL_TIM_IC_Start) refers to stm32f4xx_hal_tim.o(i.TIM_CCxChannelCmd) for TIM_CCxChannelCmd
    stm32f4xx_hal_tim.o(i.HAL_TIM_IC_Start_DMA) refers to main.o(i.assert_failed) for assert_failed
    stm32f4xx_hal_tim.o(i.HAL_TIM_IC_Start_DMA) refers to stm32f4xx_hal_dma.o(i.HAL_DMA_Start_IT) for HAL_DMA_Start_IT
    stm32f4xx_hal_tim.o(i.HAL_TIM_IC_Start_DMA) refers to stm32f4xx_hal_tim.o(i.TIM_CCxChannelCmd) for TIM_CCxChannelCmd
    stm32f4xx_hal_tim.o(i.HAL_TIM_IC_Start_DMA) refers to stm32f4xx_hal_tim.o(i.TIM_DMACaptureCplt) for TIM_DMACaptureCplt
    stm32f4xx_hal_tim.o(i.HAL_TIM_IC_Start_DMA) refers to stm32f4xx_hal_tim.o(i.TIM_DMAError) for TIM_DMAError
    stm32f4xx_hal_tim.o(i.HAL_TIM_IC_Start_IT) refers to main.o(i.assert_failed) for assert_failed
    stm32f4xx_hal_tim.o(i.HAL_TIM_IC_Start_IT) refers to stm32f4xx_hal_tim.o(i.TIM_CCxChannelCmd) for TIM_CCxChannelCmd
    stm32f4xx_hal_tim.o(i.HAL_TIM_IC_Stop) refers to main.o(i.assert_failed) for assert_failed
    stm32f4xx_hal_tim.o(i.HAL_TIM_IC_Stop) refers to stm32f4xx_hal_tim.o(i.TIM_CCxChannelCmd) for TIM_CCxChannelCmd
    stm32f4xx_hal_tim.o(i.HAL_TIM_IC_Stop_DMA) refers to main.o(i.assert_failed) for assert_failed
    stm32f4xx_hal_tim.o(i.HAL_TIM_IC_Stop_DMA) refers to stm32f4xx_hal_tim.o(i.TIM_CCxChannelCmd) for TIM_CCxChannelCmd
    stm32f4xx_hal_tim.o(i.HAL_TIM_IC_Stop_IT) refers to main.o(i.assert_failed) for assert_failed
    stm32f4xx_hal_tim.o(i.HAL_TIM_IC_Stop_IT) refers to stm32f4xx_hal_tim.o(i.TIM_CCxChannelCmd) for TIM_CCxChannelCmd
    stm32f4xx_hal_tim.o(i.HAL_TIM_IRQHandler) refers to stm32f4xx_hal_tim.o(i.HAL_TIM_IC_CaptureCallback) for HAL_TIM_IC_CaptureCallback
    stm32f4xx_hal_tim.o(i.HAL_TIM_IRQHandler) refers to stm32f4xx_hal_tim.o(i.HAL_TIM_OC_DelayElapsedCallback) for HAL_TIM_OC_DelayElapsedCallback
    stm32f4xx_hal_tim.o(i.HAL_TIM_IRQHandler) refers to stm32f4xx_hal_tim.o(i.HAL_TIM_PWM_PulseFinishedCallback) for HAL_TIM_PWM_PulseFinishedCallback
    stm32f4xx_hal_tim.o(i.HAL_TIM_IRQHandler) refers to stm32f4xx_hal_tim.o(i.HAL_TIM_PeriodElapsedCallback) for HAL_TIM_PeriodElapsedCallback
    stm32f4xx_hal_tim.o(i.HAL_TIM_IRQHandler) refers to stm32f4xx_hal_tim_ex.o(i.HAL_TIMEx_BreakCallback) for HAL_TIMEx_BreakCallback
    stm32f4xx_hal_tim.o(i.HAL_TIM_IRQHandler) refers to stm32f4xx_hal_tim.o(i.HAL_TIM_TriggerCallback) for HAL_TIM_TriggerCallback
    stm32f4xx_hal_tim.o(i.HAL_TIM_IRQHandler) refers to stm32f4xx_hal_tim_ex.o(i.HAL_TIMEx_CommutationCallback) for HAL_TIMEx_CommutationCallback
    stm32f4xx_hal_tim.o(i.HAL_TIM_OC_ConfigChannel) refers to main.o(i.assert_failed) for assert_failed
    stm32f4xx_hal_tim.o(i.HAL_TIM_OC_ConfigChannel) refers to stm32f4xx_hal_tim.o(i.TIM_OC1_SetConfig) for TIM_OC1_SetConfig
    stm32f4xx_hal_tim.o(i.HAL_TIM_OC_ConfigChannel) refers to stm32f4xx_hal_tim.o(i.TIM_OC2_SetConfig) for TIM_OC2_SetConfig
    stm32f4xx_hal_tim.o(i.HAL_TIM_OC_ConfigChannel) refers to stm32f4xx_hal_tim.o(i.TIM_OC3_SetConfig) for TIM_OC3_SetConfig
    stm32f4xx_hal_tim.o(i.HAL_TIM_OC_ConfigChannel) refers to stm32f4xx_hal_tim.o(i.TIM_OC4_SetConfig) for TIM_OC4_SetConfig
    stm32f4xx_hal_tim.o(i.HAL_TIM_OC_DeInit) refers to main.o(i.assert_failed) for assert_failed
    stm32f4xx_hal_tim.o(i.HAL_TIM_OC_DeInit) refers to stm32f4xx_hal_tim.o(i.HAL_TIM_OC_MspDeInit) for HAL_TIM_OC_MspDeInit
    stm32f4xx_hal_tim.o(i.HAL_TIM_OC_Init) refers to main.o(i.assert_failed) for assert_failed
    stm32f4xx_hal_tim.o(i.HAL_TIM_OC_Init) refers to stm32f4xx_hal_tim.o(i.HAL_TIM_OC_MspInit) for HAL_TIM_OC_MspInit
    stm32f4xx_hal_tim.o(i.HAL_TIM_OC_Init) refers to stm32f4xx_hal_tim.o(i.TIM_Base_SetConfig) for TIM_Base_SetConfig
    stm32f4xx_hal_tim.o(i.HAL_TIM_OC_Start) refers to main.o(i.assert_failed) for assert_failed
    stm32f4xx_hal_tim.o(i.HAL_TIM_OC_Start) refers to stm32f4xx_hal_tim.o(i.TIM_CCxChannelCmd) for TIM_CCxChannelCmd
    stm32f4xx_hal_tim.o(i.HAL_TIM_OC_Start_DMA) refers to main.o(i.assert_failed) for assert_failed
    stm32f4xx_hal_tim.o(i.HAL_TIM_OC_Start_DMA) refers to stm32f4xx_hal_dma.o(i.HAL_DMA_Start_IT) for HAL_DMA_Start_IT
    stm32f4xx_hal_tim.o(i.HAL_TIM_OC_Start_DMA) refers to stm32f4xx_hal_tim.o(i.TIM_CCxChannelCmd) for TIM_CCxChannelCmd
    stm32f4xx_hal_tim.o(i.HAL_TIM_OC_Start_DMA) refers to stm32f4xx_hal_tim.o(i.TIM_DMADelayPulseCplt) for TIM_DMADelayPulseCplt
    stm32f4xx_hal_tim.o(i.HAL_TIM_OC_Start_DMA) refers to stm32f4xx_hal_tim.o(i.TIM_DMAError) for TIM_DMAError
    stm32f4xx_hal_tim.o(i.HAL_TIM_OC_Start_IT) refers to main.o(i.assert_failed) for assert_failed
    stm32f4xx_hal_tim.o(i.HAL_TIM_OC_Start_IT) refers to stm32f4xx_hal_tim.o(i.TIM_CCxChannelCmd) for TIM_CCxChannelCmd
    stm32f4xx_hal_tim.o(i.HAL_TIM_OC_Stop) refers to main.o(i.assert_failed) for assert_failed
    stm32f4xx_hal_tim.o(i.HAL_TIM_OC_Stop) refers to stm32f4xx_hal_tim.o(i.TIM_CCxChannelCmd) for TIM_CCxChannelCmd
    stm32f4xx_hal_tim.o(i.HAL_TIM_OC_Stop_DMA) refers to main.o(i.assert_failed) for assert_failed
    stm32f4xx_hal_tim.o(i.HAL_TIM_OC_Stop_DMA) refers to stm32f4xx_hal_tim.o(i.TIM_CCxChannelCmd) for TIM_CCxChannelCmd
    stm32f4xx_hal_tim.o(i.HAL_TIM_OC_Stop_IT) refers to main.o(i.assert_failed) for assert_failed
    stm32f4xx_hal_tim.o(i.HAL_TIM_OC_Stop_IT) refers to stm32f4xx_hal_tim.o(i.TIM_CCxChannelCmd) for TIM_CCxChannelCmd
    stm32f4xx_hal_tim.o(i.HAL_TIM_OnePulse_ConfigChannel) refers to main.o(i.assert_failed) for assert_failed
    stm32f4xx_hal_tim.o(i.HAL_TIM_OnePulse_ConfigChannel) refers to stm32f4xx_hal_tim.o(i.TIM_OC1_SetConfig) for TIM_OC1_SetConfig
    stm32f4xx_hal_tim.o(i.HAL_TIM_OnePulse_ConfigChannel) refers to stm32f4xx_hal_tim.o(i.TIM_OC2_SetConfig) for TIM_OC2_SetConfig
    stm32f4xx_hal_tim.o(i.HAL_TIM_OnePulse_ConfigChannel) refers to stm32f4xx_hal_tim.o(i.TIM_TI1_SetConfig) for TIM_TI1_SetConfig
    stm32f4xx_hal_tim.o(i.HAL_TIM_OnePulse_ConfigChannel) refers to stm32f4xx_hal_tim.o(i.TIM_TI2_SetConfig) for TIM_TI2_SetConfig
    stm32f4xx_hal_tim.o(i.HAL_TIM_OnePulse_DeInit) refers to main.o(i.assert_failed) for assert_failed
    stm32f4xx_hal_tim.o(i.HAL_TIM_OnePulse_DeInit) refers to stm32f4xx_hal_tim.o(i.HAL_TIM_OnePulse_MspDeInit) for HAL_TIM_OnePulse_MspDeInit
    stm32f4xx_hal_tim.o(i.HAL_TIM_OnePulse_Init) refers to main.o(i.assert_failed) for assert_failed
    stm32f4xx_hal_tim.o(i.HAL_TIM_OnePulse_Init) refers to stm32f4xx_hal_tim.o(i.HAL_TIM_OnePulse_MspInit) for HAL_TIM_OnePulse_MspInit
    stm32f4xx_hal_tim.o(i.HAL_TIM_OnePulse_Init) refers to stm32f4xx_hal_tim.o(i.TIM_Base_SetConfig) for TIM_Base_SetConfig
    stm32f4xx_hal_tim.o(i.HAL_TIM_OnePulse_Start) refers to stm32f4xx_hal_tim.o(i.TIM_CCxChannelCmd) for TIM_CCxChannelCmd
    stm32f4xx_hal_tim.o(i.HAL_TIM_OnePulse_Start_IT) refers to stm32f4xx_hal_tim.o(i.TIM_CCxChannelCmd) for TIM_CCxChannelCmd
    stm32f4xx_hal_tim.o(i.HAL_TIM_OnePulse_Stop) refers to stm32f4xx_hal_tim.o(i.TIM_CCxChannelCmd) for TIM_CCxChannelCmd
    stm32f4xx_hal_tim.o(i.HAL_TIM_OnePulse_Stop_IT) refers to stm32f4xx_hal_tim.o(i.TIM_CCxChannelCmd) for TIM_CCxChannelCmd
    stm32f4xx_hal_tim.o(i.HAL_TIM_PWM_ConfigChannel) refers to main.o(i.assert_failed) for assert_failed
    stm32f4xx_hal_tim.o(i.HAL_TIM_PWM_ConfigChannel) refers to stm32f4xx_hal_tim.o(i.TIM_OC1_SetConfig) for TIM_OC1_SetConfig
    stm32f4xx_hal_tim.o(i.HAL_TIM_PWM_ConfigChannel) refers to stm32f4xx_hal_tim.o(i.TIM_OC2_SetConfig) for TIM_OC2_SetConfig
    stm32f4xx_hal_tim.o(i.HAL_TIM_PWM_ConfigChannel) refers to stm32f4xx_hal_tim.o(i.TIM_OC3_SetConfig) for TIM_OC3_SetConfig
    stm32f4xx_hal_tim.o(i.HAL_TIM_PWM_ConfigChannel) refers to stm32f4xx_hal_tim.o(i.TIM_OC4_SetConfig) for TIM_OC4_SetConfig
    stm32f4xx_hal_tim.o(i.HAL_TIM_PWM_DeInit) refers to main.o(i.assert_failed) for assert_failed
    stm32f4xx_hal_tim.o(i.HAL_TIM_PWM_DeInit) refers to stm32f4xx_hal_tim.o(i.HAL_TIM_PWM_MspDeInit) for HAL_TIM_PWM_MspDeInit
    stm32f4xx_hal_tim.o(i.HAL_TIM_PWM_Init) refers to main.o(i.assert_failed) for assert_failed
    stm32f4xx_hal_tim.o(i.HAL_TIM_PWM_Init) refers to stm32f4xx_hal_tim.o(i.HAL_TIM_PWM_MspInit) for HAL_TIM_PWM_MspInit
    stm32f4xx_hal_tim.o(i.HAL_TIM_PWM_Init) refers to stm32f4xx_hal_tim.o(i.TIM_Base_SetConfig) for TIM_Base_SetConfig
    stm32f4xx_hal_tim.o(i.HAL_TIM_PWM_Start) refers to main.o(i.assert_failed) for assert_failed
    stm32f4xx_hal_tim.o(i.HAL_TIM_PWM_Start) refers to stm32f4xx_hal_tim.o(i.TIM_CCxChannelCmd) for TIM_CCxChannelCmd
    stm32f4xx_hal_tim.o(i.HAL_TIM_PWM_Start_DMA) refers to main.o(i.assert_failed) for assert_failed
    stm32f4xx_hal_tim.o(i.HAL_TIM_PWM_Start_DMA) refers to stm32f4xx_hal_dma.o(i.HAL_DMA_Start_IT) for HAL_DMA_Start_IT
    stm32f4xx_hal_tim.o(i.HAL_TIM_PWM_Start_DMA) refers to stm32f4xx_hal_tim.o(i.TIM_CCxChannelCmd) for TIM_CCxChannelCmd
    stm32f4xx_hal_tim.o(i.HAL_TIM_PWM_Start_DMA) refers to stm32f4xx_hal_tim.o(i.TIM_DMADelayPulseCplt) for TIM_DMADelayPulseCplt
    stm32f4xx_hal_tim.o(i.HAL_TIM_PWM_Start_DMA) refers to stm32f4xx_hal_tim.o(i.TIM_DMAError) for TIM_DMAError
    stm32f4xx_hal_tim.o(i.HAL_TIM_PWM_Start_IT) refers to main.o(i.assert_failed) for assert_failed
    stm32f4xx_hal_tim.o(i.HAL_TIM_PWM_Start_IT) refers to stm32f4xx_hal_tim.o(i.TIM_CCxChannelCmd) for TIM_CCxChannelCmd
    stm32f4xx_hal_tim.o(i.HAL_TIM_PWM_Stop) refers to main.o(i.assert_failed) for assert_failed
    stm32f4xx_hal_tim.o(i.HAL_TIM_PWM_Stop) refers to stm32f4xx_hal_tim.o(i.TIM_CCxChannelCmd) for TIM_CCxChannelCmd
    stm32f4xx_hal_tim.o(i.HAL_TIM_PWM_Stop_DMA) refers to main.o(i.assert_failed) for assert_failed
    stm32f4xx_hal_tim.o(i.HAL_TIM_PWM_Stop_DMA) refers to stm32f4xx_hal_tim.o(i.TIM_CCxChannelCmd) for TIM_CCxChannelCmd
    stm32f4xx_hal_tim.o(i.HAL_TIM_PWM_Stop_IT) refers to main.o(i.assert_failed) for assert_failed
    stm32f4xx_hal_tim.o(i.HAL_TIM_PWM_Stop_IT) refers to stm32f4xx_hal_tim.o(i.TIM_CCxChannelCmd) for TIM_CCxChannelCmd
    stm32f4xx_hal_tim.o(i.HAL_TIM_ReadCapturedValue) refers to main.o(i.assert_failed) for assert_failed
    stm32f4xx_hal_tim.o(i.HAL_TIM_SlaveConfigSynchronization) refers to main.o(i.assert_failed) for assert_failed
    stm32f4xx_hal_tim.o(i.HAL_TIM_SlaveConfigSynchronization) refers to stm32f4xx_hal_tim.o(i.TIM_SlaveTimer_SetConfig) for TIM_SlaveTimer_SetConfig
    stm32f4xx_hal_tim.o(i.HAL_TIM_SlaveConfigSynchronization_IT) refers to main.o(i.assert_failed) for assert_failed
    stm32f4xx_hal_tim.o(i.HAL_TIM_SlaveConfigSynchronization_IT) refers to stm32f4xx_hal_tim.o(i.TIM_SlaveTimer_SetConfig) for TIM_SlaveTimer_SetConfig
    stm32f4xx_hal_tim.o(i.TIM_CCxChannelCmd) refers to main.o(i.assert_failed) for assert_failed
    stm32f4xx_hal_tim.o(i.TIM_DMACaptureCplt) refers to stm32f4xx_hal_tim.o(i.HAL_TIM_IC_CaptureCallback) for HAL_TIM_IC_CaptureCallback
    stm32f4xx_hal_tim.o(i.TIM_DMADelayPulseCplt) refers to stm32f4xx_hal_tim.o(i.HAL_TIM_PWM_PulseFinishedCallback) for HAL_TIM_PWM_PulseFinishedCallback
    stm32f4xx_hal_tim.o(i.TIM_DMAError) refers to stm32f4xx_hal_tim.o(i.HAL_TIM_ErrorCallback) for HAL_TIM_ErrorCallback
    stm32f4xx_hal_tim.o(i.TIM_DMAPeriodElapsedCplt) refers to stm32f4xx_hal_tim.o(i.HAL_TIM_PeriodElapsedCallback) for HAL_TIM_PeriodElapsedCallback
    stm32f4xx_hal_tim.o(i.TIM_DMATriggerCplt) refers to stm32f4xx_hal_tim.o(i.HAL_TIM_TriggerCallback) for HAL_TIM_TriggerCallback
    stm32f4xx_hal_tim.o(i.TIM_OC2_SetConfig) refers to main.o(i.assert_failed) for assert_failed
    stm32f4xx_hal_tim.o(i.TIM_OC3_SetConfig) refers to main.o(i.assert_failed) for assert_failed
    stm32f4xx_hal_tim.o(i.TIM_OC4_SetConfig) refers to main.o(i.assert_failed) for assert_failed
    stm32f4xx_hal_tim.o(i.TIM_SlaveTimer_SetConfig) refers to main.o(i.assert_failed) for assert_failed
    stm32f4xx_hal_tim.o(i.TIM_SlaveTimer_SetConfig) refers to stm32f4xx_hal_tim.o(i.TIM_ETR_SetConfig) for TIM_ETR_SetConfig
    stm32f4xx_hal_tim.o(i.TIM_SlaveTimer_SetConfig) refers to stm32f4xx_hal_tim.o(i.TIM_TI1_ConfigInputStage) for TIM_TI1_ConfigInputStage
    stm32f4xx_hal_tim.o(i.TIM_SlaveTimer_SetConfig) refers to stm32f4xx_hal_tim.o(i.TIM_TI2_ConfigInputStage) for TIM_TI2_ConfigInputStage
    stm32f4xx_hal_tim_ex.o(i.HAL_TIMEx_ConfigBreakDeadTime) refers to main.o(i.assert_failed) for assert_failed
    stm32f4xx_hal_tim_ex.o(i.HAL_TIMEx_ConfigCommutationEvent) refers to main.o(i.assert_failed) for assert_failed
    stm32f4xx_hal_tim_ex.o(i.HAL_TIMEx_ConfigCommutationEvent_DMA) refers to main.o(i.assert_failed) for assert_failed
    stm32f4xx_hal_tim_ex.o(i.HAL_TIMEx_ConfigCommutationEvent_DMA) refers to stm32f4xx_hal_tim_ex.o(i.TIMEx_DMACommutationCplt) for TIMEx_DMACommutationCplt
    stm32f4xx_hal_tim_ex.o(i.HAL_TIMEx_ConfigCommutationEvent_DMA) refers to stm32f4xx_hal_tim.o(i.TIM_DMAError) for TIM_DMAError
    stm32f4xx_hal_tim_ex.o(i.HAL_TIMEx_ConfigCommutationEvent_IT) refers to main.o(i.assert_failed) for assert_failed
    stm32f4xx_hal_tim_ex.o(i.HAL_TIMEx_HallSensor_DeInit) refers to main.o(i.assert_failed) for assert_failed
    stm32f4xx_hal_tim_ex.o(i.HAL_TIMEx_HallSensor_DeInit) refers to stm32f4xx_hal_tim_ex.o(i.HAL_TIMEx_HallSensor_MspDeInit) for HAL_TIMEx_HallSensor_MspDeInit
    stm32f4xx_hal_tim_ex.o(i.HAL_TIMEx_HallSensor_Init) refers to main.o(i.assert_failed) for assert_failed
    stm32f4xx_hal_tim_ex.o(i.HAL_TIMEx_HallSensor_Init) refers to stm32f4xx_hal_tim_ex.o(i.HAL_TIMEx_HallSensor_MspInit) for HAL_TIMEx_HallSensor_MspInit
    stm32f4xx_hal_tim_ex.o(i.HAL_TIMEx_HallSensor_Init) refers to stm32f4xx_hal_tim.o(i.TIM_Base_SetConfig) for TIM_Base_SetConfig
    stm32f4xx_hal_tim_ex.o(i.HAL_TIMEx_HallSensor_Init) refers to stm32f4xx_hal_tim.o(i.TIM_TI1_SetConfig) for TIM_TI1_SetConfig
    stm32f4xx_hal_tim_ex.o(i.HAL_TIMEx_HallSensor_Init) refers to stm32f4xx_hal_tim.o(i.TIM_OC2_SetConfig) for TIM_OC2_SetConfig
    stm32f4xx_hal_tim_ex.o(i.HAL_TIMEx_HallSensor_Start) refers to main.o(i.assert_failed) for assert_failed
    stm32f4xx_hal_tim_ex.o(i.HAL_TIMEx_HallSensor_Start) refers to stm32f4xx_hal_tim.o(i.TIM_CCxChannelCmd) for TIM_CCxChannelCmd
    stm32f4xx_hal_tim_ex.o(i.HAL_TIMEx_HallSensor_Start_DMA) refers to main.o(i.assert_failed) for assert_failed
    stm32f4xx_hal_tim_ex.o(i.HAL_TIMEx_HallSensor_Start_DMA) refers to stm32f4xx_hal_tim.o(i.TIM_CCxChannelCmd) for TIM_CCxChannelCmd
    stm32f4xx_hal_tim_ex.o(i.HAL_TIMEx_HallSensor_Start_DMA) refers to stm32f4xx_hal_dma.o(i.HAL_DMA_Start_IT) for HAL_DMA_Start_IT
    stm32f4xx_hal_tim_ex.o(i.HAL_TIMEx_HallSensor_Start_DMA) refers to stm32f4xx_hal_tim.o(i.TIM_DMACaptureCplt) for TIM_DMACaptureCplt
    stm32f4xx_hal_tim_ex.o(i.HAL_TIMEx_HallSensor_Start_DMA) refers to stm32f4xx_hal_tim.o(i.TIM_DMAError) for TIM_DMAError
    stm32f4xx_hal_tim_ex.o(i.HAL_TIMEx_HallSensor_Start_IT) refers to main.o(i.assert_failed) for assert_failed
    stm32f4xx_hal_tim_ex.o(i.HAL_TIMEx_HallSensor_Start_IT) refers to stm32f4xx_hal_tim.o(i.TIM_CCxChannelCmd) for TIM_CCxChannelCmd
    stm32f4xx_hal_tim_ex.o(i.HAL_TIMEx_HallSensor_Stop) refers to main.o(i.assert_failed) for assert_failed
    stm32f4xx_hal_tim_ex.o(i.HAL_TIMEx_HallSensor_Stop) refers to stm32f4xx_hal_tim.o(i.TIM_CCxChannelCmd) for TIM_CCxChannelCmd
    stm32f4xx_hal_tim_ex.o(i.HAL_TIMEx_HallSensor_Stop_DMA) refers to main.o(i.assert_failed) for assert_failed
    stm32f4xx_hal_tim_ex.o(i.HAL_TIMEx_HallSensor_Stop_DMA) refers to stm32f4xx_hal_tim.o(i.TIM_CCxChannelCmd) for TIM_CCxChannelCmd
    stm32f4xx_hal_tim_ex.o(i.HAL_TIMEx_HallSensor_Stop_IT) refers to main.o(i.assert_failed) for assert_failed
    stm32f4xx_hal_tim_ex.o(i.HAL_TIMEx_HallSensor_Stop_IT) refers to stm32f4xx_hal_tim.o(i.TIM_CCxChannelCmd) for TIM_CCxChannelCmd
    stm32f4xx_hal_tim_ex.o(i.HAL_TIMEx_MasterConfigSynchronization) refers to main.o(i.assert_failed) for assert_failed
    stm32f4xx_hal_tim_ex.o(i.HAL_TIMEx_OCN_Start) refers to main.o(i.assert_failed) for assert_failed
    stm32f4xx_hal_tim_ex.o(i.HAL_TIMEx_OCN_Start) refers to stm32f4xx_hal_tim_ex.o(i.TIM_CCxNChannelCmd) for TIM_CCxNChannelCmd
    stm32f4xx_hal_tim_ex.o(i.HAL_TIMEx_OCN_Start_DMA) refers to main.o(i.assert_failed) for assert_failed
    stm32f4xx_hal_tim_ex.o(i.HAL_TIMEx_OCN_Start_DMA) refers to stm32f4xx_hal_dma.o(i.HAL_DMA_Start_IT) for HAL_DMA_Start_IT
    stm32f4xx_hal_tim_ex.o(i.HAL_TIMEx_OCN_Start_DMA) refers to stm32f4xx_hal_tim_ex.o(i.TIM_CCxNChannelCmd) for TIM_CCxNChannelCmd
    stm32f4xx_hal_tim_ex.o(i.HAL_TIMEx_OCN_Start_DMA) refers to stm32f4xx_hal_tim.o(i.TIM_DMADelayPulseCplt) for TIM_DMADelayPulseCplt
    stm32f4xx_hal_tim_ex.o(i.HAL_TIMEx_OCN_Start_DMA) refers to stm32f4xx_hal_tim.o(i.TIM_DMAError) for TIM_DMAError
    stm32f4xx_hal_tim_ex.o(i.HAL_TIMEx_OCN_Start_IT) refers to main.o(i.assert_failed) for assert_failed
    stm32f4xx_hal_tim_ex.o(i.HAL_TIMEx_OCN_Start_IT) refers to stm32f4xx_hal_tim_ex.o(i.TIM_CCxNChannelCmd) for TIM_CCxNChannelCmd
    stm32f4xx_hal_tim_ex.o(i.HAL_TIMEx_OCN_Stop) refers to main.o(i.assert_failed) for assert_failed
    stm32f4xx_hal_tim_ex.o(i.HAL_TIMEx_OCN_Stop) refers to stm32f4xx_hal_tim_ex.o(i.TIM_CCxNChannelCmd) for TIM_CCxNChannelCmd
    stm32f4xx_hal_tim_ex.o(i.HAL_TIMEx_OCN_Stop_DMA) refers to main.o(i.assert_failed) for assert_failed
    stm32f4xx_hal_tim_ex.o(i.HAL_TIMEx_OCN_Stop_DMA) refers to stm32f4xx_hal_tim_ex.o(i.TIM_CCxNChannelCmd) for TIM_CCxNChannelCmd
    stm32f4xx_hal_tim_ex.o(i.HAL_TIMEx_OCN_Stop_IT) refers to main.o(i.assert_failed) for assert_failed
    stm32f4xx_hal_tim_ex.o(i.HAL_TIMEx_OCN_Stop_IT) refers to stm32f4xx_hal_tim_ex.o(i.TIM_CCxNChannelCmd) for TIM_CCxNChannelCmd
    stm32f4xx_hal_tim_ex.o(i.HAL_TIMEx_OnePulseN_Start) refers to main.o(i.assert_failed) for assert_failed
    stm32f4xx_hal_tim_ex.o(i.HAL_TIMEx_OnePulseN_Start) refers to stm32f4xx_hal_tim_ex.o(i.TIM_CCxNChannelCmd) for TIM_CCxNChannelCmd
    stm32f4xx_hal_tim_ex.o(i.HAL_TIMEx_OnePulseN_Start_IT) refers to main.o(i.assert_failed) for assert_failed
    stm32f4xx_hal_tim_ex.o(i.HAL_TIMEx_OnePulseN_Start_IT) refers to stm32f4xx_hal_tim_ex.o(i.TIM_CCxNChannelCmd) for TIM_CCxNChannelCmd
    stm32f4xx_hal_tim_ex.o(i.HAL_TIMEx_OnePulseN_Stop) refers to main.o(i.assert_failed) for assert_failed
    stm32f4xx_hal_tim_ex.o(i.HAL_TIMEx_OnePulseN_Stop) refers to stm32f4xx_hal_tim_ex.o(i.TIM_CCxNChannelCmd) for TIM_CCxNChannelCmd
    stm32f4xx_hal_tim_ex.o(i.HAL_TIMEx_OnePulseN_Stop_IT) refers to main.o(i.assert_failed) for assert_failed
    stm32f4xx_hal_tim_ex.o(i.HAL_TIMEx_OnePulseN_Stop_IT) refers to stm32f4xx_hal_tim_ex.o(i.TIM_CCxNChannelCmd) for TIM_CCxNChannelCmd
    stm32f4xx_hal_tim_ex.o(i.HAL_TIMEx_PWMN_Start) refers to main.o(i.assert_failed) for assert_failed
    stm32f4xx_hal_tim_ex.o(i.HAL_TIMEx_PWMN_Start) refers to stm32f4xx_hal_tim_ex.o(i.TIM_CCxNChannelCmd) for TIM_CCxNChannelCmd
    stm32f4xx_hal_tim_ex.o(i.HAL_TIMEx_PWMN_Start_DMA) refers to main.o(i.assert_failed) for assert_failed
    stm32f4xx_hal_tim_ex.o(i.HAL_TIMEx_PWMN_Start_DMA) refers to stm32f4xx_hal_dma.o(i.HAL_DMA_Start_IT) for HAL_DMA_Start_IT
    stm32f4xx_hal_tim_ex.o(i.HAL_TIMEx_PWMN_Start_DMA) refers to stm32f4xx_hal_tim_ex.o(i.TIM_CCxNChannelCmd) for TIM_CCxNChannelCmd
    stm32f4xx_hal_tim_ex.o(i.HAL_TIMEx_PWMN_Start_DMA) refers to stm32f4xx_hal_tim.o(i.TIM_DMADelayPulseCplt) for TIM_DMADelayPulseCplt
    stm32f4xx_hal_tim_ex.o(i.HAL_TIMEx_PWMN_Start_DMA) refers to stm32f4xx_hal_tim.o(i.TIM_DMAError) for TIM_DMAError
    stm32f4xx_hal_tim_ex.o(i.HAL_TIMEx_PWMN_Start_IT) refers to main.o(i.assert_failed) for assert_failed
    stm32f4xx_hal_tim_ex.o(i.HAL_TIMEx_PWMN_Start_IT) refers to stm32f4xx_hal_tim_ex.o(i.TIM_CCxNChannelCmd) for TIM_CCxNChannelCmd
    stm32f4xx_hal_tim_ex.o(i.HAL_TIMEx_PWMN_Stop) refers to main.o(i.assert_failed) for assert_failed
    stm32f4xx_hal_tim_ex.o(i.HAL_TIMEx_PWMN_Stop) refers to stm32f4xx_hal_tim_ex.o(i.TIM_CCxNChannelCmd) for TIM_CCxNChannelCmd
    stm32f4xx_hal_tim_ex.o(i.HAL_TIMEx_PWMN_Stop_DMA) refers to main.o(i.assert_failed) for assert_failed
    stm32f4xx_hal_tim_ex.o(i.HAL_TIMEx_PWMN_Stop_DMA) refers to stm32f4xx_hal_tim_ex.o(i.TIM_CCxNChannelCmd) for TIM_CCxNChannelCmd
    stm32f4xx_hal_tim_ex.o(i.HAL_TIMEx_PWMN_Stop_IT) refers to main.o(i.assert_failed) for assert_failed
    stm32f4xx_hal_tim_ex.o(i.HAL_TIMEx_PWMN_Stop_IT) refers to stm32f4xx_hal_tim_ex.o(i.TIM_CCxNChannelCmd) for TIM_CCxNChannelCmd
    stm32f4xx_hal_tim_ex.o(i.HAL_TIMEx_RemapConfig) refers to main.o(i.assert_failed) for assert_failed
    stm32f4xx_hal_tim_ex.o(i.TIMEx_DMACommutationCplt) refers to stm32f4xx_hal_tim_ex.o(i.HAL_TIMEx_CommutationCallback) for HAL_TIMEx_CommutationCallback
    stm32f4xx_hal_tim_ex.o(i.TIM_CCxNChannelCmd) refers to main.o(i.assert_failed) for assert_failed
    stm32f4xx_nucleo.o(i.ADCx_Init) refers to stm32f4xx_hal_adc.o(i.HAL_ADC_GetState) for HAL_ADC_GetState
    stm32f4xx_nucleo.o(i.ADCx_Init) refers to stm32f4xx_nucleo.o(i.ADCx_MspInit) for ADCx_MspInit
    stm32f4xx_nucleo.o(i.ADCx_Init) refers to stm32f4xx_hal_adc.o(i.HAL_ADC_Init) for HAL_ADC_Init
    stm32f4xx_nucleo.o(i.ADCx_Init) refers to stm32f4xx_nucleo.o(.bss) for hnucleo_Adc
    stm32f4xx_nucleo.o(i.ADCx_MspInit) refers to stm32f4xx_hal_gpio.o(i.HAL_GPIO_Init) for HAL_GPIO_Init
    stm32f4xx_nucleo.o(i.BSP_JOY_GetState) refers to stm32f4xx_hal_adc.o(i.HAL_ADC_Start) for HAL_ADC_Start
    stm32f4xx_nucleo.o(i.BSP_JOY_GetState) refers to stm32f4xx_hal_adc.o(i.HAL_ADC_PollForConversion) for HAL_ADC_PollForConversion
    stm32f4xx_nucleo.o(i.BSP_JOY_GetState) refers to stm32f4xx_hal_adc.o(i.HAL_ADC_GetState) for HAL_ADC_GetState
    stm32f4xx_nucleo.o(i.BSP_JOY_GetState) refers to stm32f4xx_hal_adc.o(i.HAL_ADC_GetValue) for HAL_ADC_GetValue
    stm32f4xx_nucleo.o(i.BSP_JOY_GetState) refers to stm32f4xx_nucleo.o(.bss) for hnucleo_Adc
    stm32f4xx_nucleo.o(i.BSP_JOY_Init) refers to stm32f4xx_nucleo.o(i.ADCx_Init) for ADCx_Init
    stm32f4xx_nucleo.o(i.BSP_JOY_Init) refers to stm32f4xx_hal_adc.o(i.HAL_ADC_ConfigChannel) for HAL_ADC_ConfigChannel
    stm32f4xx_nucleo.o(i.BSP_JOY_Init) refers to stm32f4xx_nucleo.o(.bss) for sConfig
    stm32f4xx_nucleo.o(i.BSP_LED_Init) refers to stm32f4xx_hal_gpio.o(i.HAL_GPIO_Init) for HAL_GPIO_Init
    stm32f4xx_nucleo.o(i.BSP_LED_Init) refers to stm32f4xx_hal_gpio.o(i.HAL_GPIO_WritePin) for HAL_GPIO_WritePin
    stm32f4xx_nucleo.o(i.BSP_LED_Init) refers to stm32f4xx_nucleo.o(.constdata) for GPIO_PIN
    stm32f4xx_nucleo.o(i.BSP_LED_Init) refers to stm32f4xx_nucleo.o(.data) for GPIO_PORT
    stm32f4xx_nucleo.o(i.BSP_LED_Off) refers to stm32f4xx_hal_gpio.o(i.HAL_GPIO_WritePin) for HAL_GPIO_WritePin
    stm32f4xx_nucleo.o(i.BSP_LED_Off) refers to stm32f4xx_nucleo.o(.constdata) for GPIO_PIN
    stm32f4xx_nucleo.o(i.BSP_LED_Off) refers to stm32f4xx_nucleo.o(.data) for GPIO_PORT
    stm32f4xx_nucleo.o(i.BSP_LED_On) refers to stm32f4xx_hal_gpio.o(i.HAL_GPIO_WritePin) for HAL_GPIO_WritePin
    stm32f4xx_nucleo.o(i.BSP_LED_On) refers to stm32f4xx_nucleo.o(.constdata) for GPIO_PIN
    stm32f4xx_nucleo.o(i.BSP_LED_On) refers to stm32f4xx_nucleo.o(.data) for GPIO_PORT
    stm32f4xx_nucleo.o(i.BSP_LED_Toggle) refers to stm32f4xx_hal_gpio.o(i.HAL_GPIO_TogglePin) for HAL_GPIO_TogglePin
    stm32f4xx_nucleo.o(i.BSP_LED_Toggle) refers to stm32f4xx_nucleo.o(.constdata) for GPIO_PIN
    stm32f4xx_nucleo.o(i.BSP_LED_Toggle) refers to stm32f4xx_nucleo.o(.data) for GPIO_PORT
    stm32f4xx_nucleo.o(i.BSP_PB_GetState) refers to stm32f4xx_hal_gpio.o(i.HAL_GPIO_ReadPin) for HAL_GPIO_ReadPin
    stm32f4xx_nucleo.o(i.BSP_PB_GetState) refers to stm32f4xx_nucleo.o(.constdata) for BUTTON_PIN
    stm32f4xx_nucleo.o(i.BSP_PB_GetState) refers to stm32f4xx_nucleo.o(.data) for BUTTON_PORT
    stm32f4xx_nucleo.o(i.BSP_PB_Init) refers to stm32f4xx_hal_gpio.o(i.HAL_GPIO_Init) for HAL_GPIO_Init
    stm32f4xx_nucleo.o(i.BSP_PB_Init) refers to stm32f4xx_hal_cortex.o(i.HAL_NVIC_SetPriority) for HAL_NVIC_SetPriority
    stm32f4xx_nucleo.o(i.BSP_PB_Init) refers to stm32f4xx_hal_cortex.o(i.HAL_NVIC_EnableIRQ) for HAL_NVIC_EnableIRQ
    stm32f4xx_nucleo.o(i.BSP_PB_Init) refers to stm32f4xx_nucleo.o(.constdata) for BUTTON_PIN
    stm32f4xx_nucleo.o(i.BSP_PB_Init) refers to stm32f4xx_nucleo.o(.data) for BUTTON_PORT
    stm32f4xx_nucleo.o(i.LCD_Delay) refers to stm32f4xx_hal.o(i.HAL_Delay) for HAL_Delay
    stm32f4xx_nucleo.o(i.LCD_IO_Init) refers to stm32f4xx_hal_gpio.o(i.HAL_GPIO_Init) for HAL_GPIO_Init
    stm32f4xx_nucleo.o(i.LCD_IO_Init) refers to stm32f4xx_hal_gpio.o(i.HAL_GPIO_WritePin) for HAL_GPIO_WritePin
    stm32f4xx_nucleo.o(i.LCD_IO_Init) refers to stm32f4xx_nucleo.o(i.SPIx_Init) for SPIx_Init
    stm32f4xx_nucleo.o(i.LCD_IO_WriteData) refers to stm32f4xx_hal_gpio.o(i.HAL_GPIO_WritePin) for HAL_GPIO_WritePin
    stm32f4xx_nucleo.o(i.LCD_IO_WriteData) refers to stm32f4xx_nucleo.o(i.SPIx_Write) for SPIx_Write
    stm32f4xx_nucleo.o(i.LCD_IO_WriteMultipleData) refers to stm32f4xx_hal_gpio.o(i.HAL_GPIO_WritePin) for HAL_GPIO_WritePin
    stm32f4xx_nucleo.o(i.LCD_IO_WriteMultipleData) refers to stm32f4xx_nucleo.o(i.SPIx_Write) for SPIx_Write
    stm32f4xx_nucleo.o(i.LCD_IO_WriteMultipleData) refers to stm32f4xx_nucleo.o(.bss) for hnucleo_Spi
    stm32f4xx_nucleo.o(i.LCD_IO_WriteReg) refers to stm32f4xx_hal_gpio.o(i.HAL_GPIO_WritePin) for HAL_GPIO_WritePin
    stm32f4xx_nucleo.o(i.LCD_IO_WriteReg) refers to stm32f4xx_nucleo.o(i.SPIx_Write) for SPIx_Write
    stm32f4xx_nucleo.o(i.SD_IO_Init) refers to stm32f4xx_hal_gpio.o(i.HAL_GPIO_Init) for HAL_GPIO_Init
    stm32f4xx_nucleo.o(i.SD_IO_Init) refers to stm32f4xx_nucleo.o(i.SPIx_Init) for SPIx_Init
    stm32f4xx_nucleo.o(i.SD_IO_Init) refers to stm32f4xx_hal_gpio.o(i.HAL_GPIO_WritePin) for HAL_GPIO_WritePin
    stm32f4xx_nucleo.o(i.SD_IO_Init) refers to stm32f4xx_nucleo.o(i.SD_IO_WriteByte) for SD_IO_WriteByte
    stm32f4xx_nucleo.o(i.SD_IO_ReadByte) refers to stm32f4xx_nucleo.o(i.SPIx_Read) for SPIx_Read
    stm32f4xx_nucleo.o(i.SD_IO_WaitResponse) refers to stm32f4xx_nucleo.o(i.SD_IO_ReadByte) for SD_IO_ReadByte
    stm32f4xx_nucleo.o(i.SD_IO_WriteByte) refers to stm32f4xx_nucleo.o(i.SPIx_Write) for SPIx_Write
    stm32f4xx_nucleo.o(i.SD_IO_WriteCmd) refers to stm32f4xx_hal_gpio.o(i.HAL_GPIO_WritePin) for HAL_GPIO_WritePin
    stm32f4xx_nucleo.o(i.SD_IO_WriteCmd) refers to stm32f4xx_nucleo.o(i.SD_IO_WriteByte) for SD_IO_WriteByte
    stm32f4xx_nucleo.o(i.SD_IO_WriteCmd) refers to stm32f4xx_nucleo.o(i.SD_IO_WaitResponse) for SD_IO_WaitResponse
    stm32f4xx_nucleo.o(i.SD_IO_WriteDummy) refers to stm32f4xx_hal_gpio.o(i.HAL_GPIO_WritePin) for HAL_GPIO_WritePin
    stm32f4xx_nucleo.o(i.SD_IO_WriteDummy) refers to stm32f4xx_nucleo.o(i.SD_IO_WriteByte) for SD_IO_WriteByte
    stm32f4xx_nucleo.o(i.SPIx_Error) refers to stm32f4xx_hal_spi.o(i.HAL_SPI_DeInit) for HAL_SPI_DeInit
    stm32f4xx_nucleo.o(i.SPIx_Error) refers to stm32f4xx_nucleo.o(i.SPIx_Init) for SPIx_Init
    stm32f4xx_nucleo.o(i.SPIx_Error) refers to stm32f4xx_nucleo.o(.bss) for hnucleo_Spi
    stm32f4xx_nucleo.o(i.SPIx_Init) refers to stm32f4xx_hal_spi.o(i.HAL_SPI_GetState) for HAL_SPI_GetState
    stm32f4xx_nucleo.o(i.SPIx_Init) refers to stm32f4xx_nucleo.o(i.SPIx_MspInit) for SPIx_MspInit
    stm32f4xx_nucleo.o(i.SPIx_Init) refers to stm32f4xx_hal_spi.o(i.HAL_SPI_Init) for HAL_SPI_Init
    stm32f4xx_nucleo.o(i.SPIx_Init) refers to stm32f4xx_nucleo.o(.bss) for hnucleo_Spi
    stm32f4xx_nucleo.o(i.SPIx_MspInit) refers to stm32f4xx_hal_gpio.o(i.HAL_GPIO_Init) for HAL_GPIO_Init
    stm32f4xx_nucleo.o(i.SPIx_Read) refers to stm32f4xx_hal_spi.o(i.HAL_SPI_TransmitReceive) for HAL_SPI_TransmitReceive
    stm32f4xx_nucleo.o(i.SPIx_Read) refers to stm32f4xx_nucleo.o(i.SPIx_Error) for SPIx_Error
    stm32f4xx_nucleo.o(i.SPIx_Read) refers to stm32f4xx_nucleo.o(.data) for SpixTimeout
    stm32f4xx_nucleo.o(i.SPIx_Read) refers to stm32f4xx_nucleo.o(.bss) for hnucleo_Spi
    stm32f4xx_nucleo.o(i.SPIx_Write) refers to stm32f4xx_hal_spi.o(i.HAL_SPI_Transmit) for HAL_SPI_Transmit
    stm32f4xx_nucleo.o(i.SPIx_Write) refers to stm32f4xx_nucleo.o(i.SPIx_Error) for SPIx_Error
    stm32f4xx_nucleo.o(i.SPIx_Write) refers to stm32f4xx_nucleo.o(.data) for SpixTimeout
    stm32f4xx_nucleo.o(i.SPIx_Write) refers to stm32f4xx_nucleo.o(.bss) for hnucleo_Spi
    xnucleoihm02a1.o(i.BSP_0_Config) refers to xnucleoihm02a1.o(i.BSP_Config) for BSP_Config
    xnucleoihm02a1.o(i.BSP_0_Config) refers to xnucleoihm02a1.o(.data) for XNUCLEOIHM02A1Drv
    xnucleoihm02a1.o(i.BSP_1_Config) refers to xnucleoihm02a1.o(i.BSP_Config) for BSP_Config
    xnucleoihm02a1.o(i.BSP_1_Config) refers to xnucleoihm02a1.o(.data) for XNUCLEOIHM02A1Drv
    xnucleoihm02a1.o(i.BSP_2_Config) refers to xnucleoihm02a1.o(i.BSP_Config) for BSP_Config
    xnucleoihm02a1.o(i.BSP_2_Config) refers to xnucleoihm02a1.o(.data) for XNUCLEOIHM02A1Drv
    xnucleoihm02a1.o(i.BSP_3_Config) refers to xnucleoihm02a1.o(i.BSP_Config) for BSP_Config
    xnucleoihm02a1.o(i.BSP_3_Config) refers to xnucleoihm02a1.o(.data) for XNUCLEOIHM02A1Drv
    xnucleoihm02a1.o(i.BSP_EmergencyStop) refers to stm32f4xx_hal_gpio.o(i.HAL_GPIO_WritePin) for HAL_GPIO_WritePin
    xnucleoihm02a1.o(i.BSP_EmergencyStop) refers to xnucleoihm02a1.o(.data) for L6470_nSTBY_nRST_GPIO
    xnucleoihm02a1.o(i.BSP_GetExpansionBoardHandle) refers to xnucleoihm02a1.o(i.EXPBRD_ID) for EXPBRD_ID
    xnucleoihm02a1.o(i.BSP_GetExpansionBoardHandle) refers to xnucleoihm02a1.o(.data) for XNUCLEOIHM02A1Drv
    xnucleoihm02a1.o(i.BSP_IRQ) refers to stm32f4xx_hal_cortex.o(i.HAL_NVIC_EnableIRQ) for HAL_NVIC_EnableIRQ
    xnucleoihm02a1.o(i.BSP_IRQ) refers to stm32f4xx_hal_cortex.o(i.HAL_NVIC_DisableIRQ) for HAL_NVIC_DisableIRQ
    xnucleoihm02a1.o(i.BSP_Init) refers to xnucleoihm02a1.o(i.EXPBRD_ID) for EXPBRD_ID
    xnucleoihm02a1.o(i.BSP_Init) refers to xnucleoihm02a1.o(i.BSP_Select) for BSP_Select
    xnucleoihm02a1.o(i.BSP_Init) refers to xnucleoihm02a1.o(i.BSP_NUCLEO_GPIO_Init) for BSP_NUCLEO_GPIO_Init
    xnucleoihm02a1.o(i.BSP_Init) refers to xnucleoihm02a1.o(i.BSP_L6470_Init) for BSP_L6470_Init
    xnucleoihm02a1.o(i.BSP_Init) refers to xnucleoihm02a1.o(i.BSP_IRQ) for BSP_IRQ
    xnucleoihm02a1.o(i.BSP_L6470_0_0_Config) refers to l6470.o(i.L6470_Config) for L6470_Config
    xnucleoihm02a1.o(i.BSP_L6470_0_0_Config) refers to xnucleoihm02a1.o(.data) for L6470DrvMtx
    xnucleoihm02a1.o(i.BSP_L6470_0_1_Config) refers to l6470.o(i.L6470_Config) for L6470_Config
    xnucleoihm02a1.o(i.BSP_L6470_0_1_Config) refers to xnucleoihm02a1.o(.data) for L6470DrvMtx
    xnucleoihm02a1.o(i.BSP_L6470_1_0_Config) refers to l6470.o(i.L6470_Config) for L6470_Config
    xnucleoihm02a1.o(i.BSP_L6470_1_0_Config) refers to xnucleoihm02a1.o(.data) for L6470DrvMtx
    xnucleoihm02a1.o(i.BSP_L6470_1_1_Config) refers to l6470.o(i.L6470_Config) for L6470_Config
    xnucleoihm02a1.o(i.BSP_L6470_1_1_Config) refers to xnucleoihm02a1.o(.data) for L6470DrvMtx
    xnucleoihm02a1.o(i.BSP_L6470_2_0_Config) refers to l6470.o(i.L6470_Config) for L6470_Config
    xnucleoihm02a1.o(i.BSP_L6470_2_0_Config) refers to xnucleoihm02a1.o(.data) for L6470DrvMtx
    xnucleoihm02a1.o(i.BSP_L6470_2_1_Config) refers to l6470.o(i.L6470_Config) for L6470_Config
    xnucleoihm02a1.o(i.BSP_L6470_2_1_Config) refers to xnucleoihm02a1.o(.data) for L6470DrvMtx
    xnucleoihm02a1.o(i.BSP_L6470_3_0_Config) refers to l6470.o(i.L6470_Config) for L6470_Config
    xnucleoihm02a1.o(i.BSP_L6470_3_0_Config) refers to xnucleoihm02a1.o(.data) for L6470DrvMtx
    xnucleoihm02a1.o(i.BSP_L6470_3_1_Config) refers to l6470.o(i.L6470_Config) for L6470_Config
    xnucleoihm02a1.o(i.BSP_L6470_3_1_Config) refers to xnucleoihm02a1.o(.data) for L6470DrvMtx
    xnucleoihm02a1.o(i.BSP_L6470_CheckStatusRegisterFlag) refers to xnucleoihm02a1.o(i.BSP_Select) for BSP_Select
    xnucleoihm02a1.o(i.BSP_L6470_CheckStatusRegisterFlag) refers to l6470.o(i.L6470_CheckStatusRegisterFlag) for L6470_CheckStatusRegisterFlag
    xnucleoihm02a1.o(i.BSP_L6470_GetParam) refers to xnucleoihm02a1.o(i.BSP_Select) for BSP_Select
    xnucleoihm02a1.o(i.BSP_L6470_GetParam) refers to l6470.o(i.L6470_GetParam) for L6470_GetParam
    xnucleoihm02a1.o(i.BSP_L6470_GetStatus) refers to xnucleoihm02a1.o(i.BSP_Select) for BSP_Select
    xnucleoihm02a1.o(i.BSP_L6470_GetStatus) refers to l6470.o(i.L6470_GetStatus) for L6470_GetStatus
    xnucleoihm02a1.o(i.BSP_L6470_GoHome) refers to xnucleoihm02a1.o(i.BSP_Select) for BSP_Select
    xnucleoihm02a1.o(i.BSP_L6470_GoHome) refers to l6470.o(i.L6470_GoHome) for L6470_GoHome
    xnucleoihm02a1.o(i.BSP_L6470_GoMark) refers to xnucleoihm02a1.o(i.BSP_Select) for BSP_Select
    xnucleoihm02a1.o(i.BSP_L6470_GoMark) refers to l6470.o(i.L6470_GoMark) for L6470_GoMark
    xnucleoihm02a1.o(i.BSP_L6470_GoTo) refers to xnucleoihm02a1.o(i.BSP_Select) for BSP_Select
    xnucleoihm02a1.o(i.BSP_L6470_GoTo) refers to l6470.o(i.L6470_GoTo) for L6470_GoTo
    xnucleoihm02a1.o(i.BSP_L6470_GoToDir) refers to xnucleoihm02a1.o(i.BSP_Select) for BSP_Select
    xnucleoihm02a1.o(i.BSP_L6470_GoToDir) refers to l6470.o(i.L6470_GoToDir) for L6470_GoToDir
    xnucleoihm02a1.o(i.BSP_L6470_GoUntil) refers to xnucleoihm02a1.o(i.BSP_Select) for BSP_Select
    xnucleoihm02a1.o(i.BSP_L6470_GoUntil) refers to l6470.o(i.L6470_GoUntil) for L6470_GoUntil
    xnucleoihm02a1.o(i.BSP_L6470_HardHiZ) refers to xnucleoihm02a1.o(i.BSP_Select) for BSP_Select
    xnucleoihm02a1.o(i.BSP_L6470_HardHiZ) refers to l6470.o(i.L6470_HardHiZ) for L6470_HardHiZ
    xnucleoihm02a1.o(i.BSP_L6470_HardStop) refers to xnucleoihm02a1.o(i.BSP_Select) for BSP_Select
    xnucleoihm02a1.o(i.BSP_L6470_HardStop) refers to l6470.o(i.L6470_HardStop) for L6470_HardStop
    xnucleoihm02a1.o(i.BSP_L6470_Init) refers to stm32f4xx_hal_gpio.o(i.HAL_GPIO_WritePin) for HAL_GPIO_WritePin
    xnucleoihm02a1.o(i.BSP_L6470_Init) refers to xnucleoihm02a1.o(i.EXPBRD_ID) for EXPBRD_ID
    xnucleoihm02a1.o(i.BSP_L6470_Init) refers to xnucleoihm02a1.o(i.BSP_Select) for BSP_Select
    xnucleoihm02a1.o(i.BSP_L6470_Init) refers to l6470.o(i.L6470_ID) for L6470_ID
    xnucleoihm02a1.o(i.BSP_L6470_Init) refers to l6470.o(i.L6470_ResetDevice) for L6470_ResetDevice
    xnucleoihm02a1.o(i.BSP_L6470_Init) refers to l6470.o(i.L6470_GetStatus) for L6470_GetStatus
    xnucleoihm02a1.o(i.BSP_L6470_Init) refers to xnucleoihm02a1.o(.data) for L6470_nSTBY_nRST_GPIO
    xnucleoihm02a1.o(i.BSP_L6470_Init) refers to xnucleoihm02a1.o(.bss) for L6470_nCS_GPIO
    xnucleoihm02a1.o(i.BSP_L6470_Move) refers to xnucleoihm02a1.o(i.BSP_Select) for BSP_Select
    xnucleoihm02a1.o(i.BSP_L6470_Move) refers to l6470.o(i.L6470_Move) for L6470_Move
    xnucleoihm02a1.o(i.BSP_L6470_PerformPreparedApplicationCommand) refers to xnucleoihm02a1.o(i.BSP_Select) for BSP_Select
    xnucleoihm02a1.o(i.BSP_L6470_PerformPreparedApplicationCommand) refers to l6470.o(i.L6470_PerformPreparedApplicationCommand) for L6470_PerformPreparedApplicationCommand
    xnucleoihm02a1.o(i.BSP_L6470_ReleaseSW) refers to xnucleoihm02a1.o(i.BSP_Select) for BSP_Select
    xnucleoihm02a1.o(i.BSP_L6470_ReleaseSW) refers to l6470.o(i.L6470_ReleaseSW) for L6470_ReleaseSW
    xnucleoihm02a1.o(i.BSP_L6470_ResetDevice) refers to xnucleoihm02a1.o(i.BSP_Select) for BSP_Select
    xnucleoihm02a1.o(i.BSP_L6470_ResetDevice) refers to l6470.o(i.L6470_ResetDevice) for L6470_ResetDevice
    xnucleoihm02a1.o(i.BSP_L6470_ResetPos) refers to xnucleoihm02a1.o(i.BSP_Select) for BSP_Select
    xnucleoihm02a1.o(i.BSP_L6470_ResetPos) refers to l6470.o(i.L6470_ResetPos) for L6470_ResetPos
    xnucleoihm02a1.o(i.BSP_L6470_Run) refers to xnucleoihm02a1.o(i.BSP_Select) for BSP_Select
    xnucleoihm02a1.o(i.BSP_L6470_Run) refers to l6470.o(i.L6470_Run) for L6470_Run
    xnucleoihm02a1.o(i.BSP_L6470_SetParam) refers to xnucleoihm02a1.o(i.BSP_Select) for BSP_Select
    xnucleoihm02a1.o(i.BSP_L6470_SetParam) refers to l6470.o(i.L6470_SetParam) for L6470_SetParam
    xnucleoihm02a1.o(i.BSP_L6470_SoftHiZ) refers to xnucleoihm02a1.o(i.BSP_Select) for BSP_Select
    xnucleoihm02a1.o(i.BSP_L6470_SoftHiZ) refers to l6470.o(i.L6470_SoftHiZ) for L6470_SoftHiZ
    xnucleoihm02a1.o(i.BSP_L6470_SoftStop) refers to xnucleoihm02a1.o(i.BSP_Select) for BSP_Select
    xnucleoihm02a1.o(i.BSP_L6470_SoftStop) refers to l6470.o(i.L6470_SoftStop) for L6470_SoftStop
    xnucleoihm02a1.o(i.BSP_L6470_StepClock) refers to xnucleoihm02a1.o(i.BSP_Select) for BSP_Select
    xnucleoihm02a1.o(i.BSP_L6470_StepClock) refers to l6470.o(i.L6470_StepClock) for L6470_StepClock
    xnucleoihm02a1.o(i.BSP_NUCLEO_GPIO_Init) refers to stm32f4xx_hal_gpio.o(i.HAL_GPIO_Init) for HAL_GPIO_Init
    xnucleoihm02a1.o(i.BSP_NUCLEO_GPIO_Init) refers to stm32f4xx_hal_cortex.o(i.HAL_NVIC_SetPriority) for HAL_NVIC_SetPriority
    xnucleoihm02a1.o(i.BSP_NUCLEO_GPIO_Init) refers to xnucleoihm02a1.o(i.EXPBRD_ID) for EXPBRD_ID
    xnucleoihm02a1.o(i.BSP_NUCLEO_GPIO_Init) refers to xnucleoihm02a1.o(.data) for L6470_nSTBY_nRST_GPIO
    xnucleoihm02a1.o(i.BSP_Select) refers to xnucleoihm02a1.o(.data) for L6470_nCS_GPIO_Array
    xnucleoihm02a1.o(i.BSP_Select) refers to xnucleoihm02a1.o(.bss) for L6470_nCS_GPIO
    xnucleoihm02a1.o(.data) refers to xnucleoihm02a1.o(i.BSP_L6470_SetParam) for BSP_L6470_SetParam
    xnucleoihm02a1.o(.data) refers to xnucleoihm02a1.o(i.BSP_L6470_GetParam) for BSP_L6470_GetParam
    xnucleoihm02a1.o(.data) refers to xnucleoihm02a1.o(i.BSP_L6470_Run) for BSP_L6470_Run
    xnucleoihm02a1.o(.data) refers to xnucleoihm02a1.o(i.BSP_L6470_StepClock) for BSP_L6470_StepClock
    xnucleoihm02a1.o(.data) refers to xnucleoihm02a1.o(i.BSP_L6470_Move) for BSP_L6470_Move
    xnucleoihm02a1.o(.data) refers to xnucleoihm02a1.o(i.BSP_L6470_GoTo) for BSP_L6470_GoTo
    xnucleoihm02a1.o(.data) refers to xnucleoihm02a1.o(i.BSP_L6470_GoToDir) for BSP_L6470_GoToDir
    xnucleoihm02a1.o(.data) refers to xnucleoihm02a1.o(i.BSP_L6470_GoUntil) for BSP_L6470_GoUntil
    xnucleoihm02a1.o(.data) refers to xnucleoihm02a1.o(i.BSP_L6470_ReleaseSW) for BSP_L6470_ReleaseSW
    xnucleoihm02a1.o(.data) refers to xnucleoihm02a1.o(i.BSP_L6470_GoHome) for BSP_L6470_GoHome
    xnucleoihm02a1.o(.data) refers to xnucleoihm02a1.o(i.BSP_L6470_GoMark) for BSP_L6470_GoMark
    xnucleoihm02a1.o(.data) refers to xnucleoihm02a1.o(i.BSP_L6470_ResetPos) for BSP_L6470_ResetPos
    xnucleoihm02a1.o(.data) refers to xnucleoihm02a1.o(i.BSP_L6470_ResetDevice) for BSP_L6470_ResetDevice
    xnucleoihm02a1.o(.data) refers to xnucleoihm02a1.o(i.BSP_L6470_SoftStop) for BSP_L6470_SoftStop
    xnucleoihm02a1.o(.data) refers to xnucleoihm02a1.o(i.BSP_L6470_HardStop) for BSP_L6470_HardStop
    xnucleoihm02a1.o(.data) refers to xnucleoihm02a1.o(i.BSP_L6470_SoftHiZ) for BSP_L6470_SoftHiZ
    xnucleoihm02a1.o(.data) refers to xnucleoihm02a1.o(i.BSP_L6470_HardHiZ) for BSP_L6470_HardHiZ
    xnucleoihm02a1.o(.data) refers to xnucleoihm02a1.o(i.BSP_L6470_GetStatus) for BSP_L6470_GetStatus
    xnucleoihm02a1.o(.data) refers to xnucleoihm02a1.o(i.BSP_L6470_CheckStatusRegisterFlag) for BSP_L6470_CheckStatusRegisterFlag
    xnucleoihm02a1.o(.data) refers to l6470.o(i.L6470_PerformPreparedApplicationCommand) for L6470_PerformPreparedApplicationCommand
    xnucleoihm02a1.o(.data) refers to xnucleoihm02a1.o(i.BSP_L6470_0_0_Config) for BSP_L6470_0_0_Config
    xnucleoihm02a1.o(.data) refers to l6470.o(.data) for L6470Command
    xnucleoihm02a1.o(.data) refers to xnucleoihm02a1.o(i.BSP_L6470_0_1_Config) for BSP_L6470_0_1_Config
    xnucleoihm02a1.o(.data) refers to xnucleoihm02a1.o(i.BSP_L6470_1_0_Config) for BSP_L6470_1_0_Config
    xnucleoihm02a1.o(.data) refers to xnucleoihm02a1.o(i.BSP_L6470_1_1_Config) for BSP_L6470_1_1_Config
    xnucleoihm02a1.o(.data) refers to xnucleoihm02a1.o(i.BSP_L6470_2_0_Config) for BSP_L6470_2_0_Config
    xnucleoihm02a1.o(.data) refers to xnucleoihm02a1.o(i.BSP_L6470_2_1_Config) for BSP_L6470_2_1_Config
    xnucleoihm02a1.o(.data) refers to xnucleoihm02a1.o(i.BSP_L6470_3_0_Config) for BSP_L6470_3_0_Config
    xnucleoihm02a1.o(.data) refers to xnucleoihm02a1.o(i.BSP_L6470_3_1_Config) for BSP_L6470_3_1_Config
    xnucleoihm02a1.o(.data) refers to xnucleoihm02a1.o(i.BSP_0_Config) for BSP_0_Config
    xnucleoihm02a1.o(.data) refers to xnucleoihm02a1.o(i.BSP_Select) for BSP_Select
    xnucleoihm02a1.o(.data) refers to xnucleoihm02a1.o(i.BSP_1_Config) for BSP_1_Config
    xnucleoihm02a1.o(.data) refers to xnucleoihm02a1.o(i.BSP_2_Config) for BSP_2_Config
    xnucleoihm02a1.o(.data) refers to xnucleoihm02a1.o(i.BSP_3_Config) for BSP_3_Config
    xnucleoihm02a1_interface.o(i.MX_ADC1_Init) refers to stm32f4xx_hal_adc.o(i.HAL_ADC_Init) for HAL_ADC_Init
    xnucleoihm02a1_interface.o(i.MX_ADC1_Init) refers to stm32f4xx_hal_adc.o(i.HAL_ADC_ConfigChannel) for HAL_ADC_ConfigChannel
    xnucleoihm02a1_interface.o(i.MX_ADC1_Init) refers to xnucleoihm02a1_interface.o(.bss) for hadc1
    xnucleoihm02a1_interface.o(i.MX_SPI1_Init) refers to stm32f4xx_hal_rcc.o(i.HAL_RCC_GetPCLK2Freq) for HAL_RCC_GetPCLK2Freq
    xnucleoihm02a1_interface.o(i.MX_SPI1_Init) refers to stm32f4xx_hal_spi.o(i.HAL_SPI_Init) for HAL_SPI_Init
    xnucleoihm02a1_interface.o(i.MX_SPI1_Init) refers to xnucleoihm02a1_interface.o(.bss) for hspi1
    xnucleoihm02a1_interface.o(i.MX_SPI2_Init) refers to stm32f4xx_hal_rcc.o(i.HAL_RCC_GetPCLK1Freq) for HAL_RCC_GetPCLK1Freq
    xnucleoihm02a1_interface.o(i.MX_SPI2_Init) refers to stm32f4xx_hal_spi.o(i.HAL_SPI_Init) for HAL_SPI_Init
    xnucleoihm02a1_interface.o(i.MX_SPI2_Init) refers to xnucleoihm02a1_interface.o(.bss) for hspi2
    xnucleoihm02a1_interface.o(i.MX_SPI_Init) refers to xnucleoihm02a1_interface.o(i.MX_SPI1_Init) for MX_SPI1_Init
    xnucleoihm02a1_interface.o(i.MX_USART2_Init) refers to stm32f4xx_hal_uart.o(i.HAL_UART_Init) for HAL_UART_Init
    xnucleoihm02a1_interface.o(i.MX_USART2_Init) refers to example_usart.o(.bss) for huart2
    xnucleoihm02a1_interface.o(i.NUCLEO_Board_Init) refers to stm32f4xx_hal.o(i.HAL_Init) for HAL_Init
    xnucleoihm02a1_interface.o(i.NUCLEO_Board_Init) refers to xnucleoihm02a1_interface.o(i.SystemClock_Config) for SystemClock_Config
    xnucleoihm02a1_interface.o(i.NUCLEO_Board_Init) refers to xnucleoihm02a1_interface.o(i.MX_GPIO_Init) for MX_GPIO_Init
    xnucleoihm02a1_interface.o(i.NUCLEO_Board_Init) refers to xnucleoihm02a1_interface.o(i.MX_SPI_Init) for MX_SPI_Init
    xnucleoihm02a1_interface.o(i.SystemClock_Config) refers to stm32f4xx_hal_rcc.o(i.HAL_RCC_OscConfig) for HAL_RCC_OscConfig
    xnucleoihm02a1_interface.o(i.SystemClock_Config) refers to stm32f4xx_hal_rcc.o(i.HAL_RCC_ClockConfig) for HAL_RCC_ClockConfig
    xnucleoihm02a1_interface.o(i.User_LED_Blinking) refers to stm32f4xx_nucleo.o(i.BSP_LED_On) for BSP_LED_On
    xnucleoihm02a1_interface.o(i.User_LED_Blinking) refers to stm32f4xx_hal.o(i.HAL_Delay) for HAL_Delay
    xnucleoihm02a1_interface.o(i.User_LED_Blinking) refers to stm32f4xx_nucleo.o(i.BSP_LED_Off) for BSP_LED_Off
    stm32f4xx_hal_msp.o(i.HAL_ADC_MspDeInit) refers to stm32f4xx_hal_gpio.o(i.HAL_GPIO_DeInit) for HAL_GPIO_DeInit
    stm32f4xx_hal_msp.o(i.HAL_ADC_MspInit) refers to stm32f4xx_hal_gpio.o(i.HAL_GPIO_Init) for HAL_GPIO_Init
    stm32f4xx_hal_msp.o(i.HAL_MspInit) refers to stm32f4xx_hal_cortex.o(i.HAL_NVIC_SetPriorityGrouping) for HAL_NVIC_SetPriorityGrouping
    stm32f4xx_hal_msp.o(i.HAL_MspInit) refers to stm32f4xx_hal_cortex.o(i.HAL_NVIC_SetPriority) for HAL_NVIC_SetPriority
    stm32f4xx_hal_msp.o(i.HAL_SPI_MspDeInit) refers to stm32f4xx_hal_gpio.o(i.HAL_GPIO_DeInit) for HAL_GPIO_DeInit
    stm32f4xx_hal_msp.o(i.HAL_SPI_MspInit) refers to stm32f4xx_hal_gpio.o(i.HAL_GPIO_Init) for HAL_GPIO_Init
    stm32f4xx_hal_msp.o(i.HAL_UART_MspDeInit) refers to stm32f4xx_hal_gpio.o(i.HAL_GPIO_DeInit) for HAL_GPIO_DeInit
    stm32f4xx_hal_msp.o(i.HAL_UART_MspDeInit) refers to stm32f4xx_hal_cortex.o(i.HAL_NVIC_DisableIRQ) for HAL_NVIC_DisableIRQ
    stm32f4xx_hal_msp.o(i.HAL_UART_MspInit) refers to stm32f4xx_hal_gpio.o(i.HAL_GPIO_Init) for HAL_GPIO_Init
    stm32f4xx_hal_msp.o(i.HAL_UART_MspInit) refers to stm32f4xx_hal_cortex.o(i.HAL_NVIC_SetPriority) for HAL_NVIC_SetPriority
    stm32f4xx_hal_msp.o(i.HAL_UART_MspInit) refers to stm32f4xx_hal_cortex.o(i.HAL_NVIC_EnableIRQ) for HAL_NVIC_EnableIRQ
    stm32f4xx_it.o(i.EXTI0_IRQHandler) refers to stm32f4xx_hal_gpio.o(i.HAL_GPIO_EXTI_IRQHandler) for HAL_GPIO_EXTI_IRQHandler
    stm32f4xx_it.o(i.EXTI15_10_IRQHandler) refers to stm32f4xx_hal_gpio.o(i.HAL_GPIO_EXTI_IRQHandler) for HAL_GPIO_EXTI_IRQHandler
    stm32f4xx_it.o(i.EXTI1_IRQHandler) refers to stm32f4xx_hal_gpio.o(i.HAL_GPIO_EXTI_IRQHandler) for HAL_GPIO_EXTI_IRQHandler
    stm32f4xx_it.o(i.EXTI4_IRQHandler) refers to l6470.o(i.L6470_HardStop) for L6470_HardStop
    stm32f4xx_it.o(i.SysTick_Handler) refers to stm32f4xx_hal.o(i.HAL_IncTick) for HAL_IncTick
    stm32f4xx_it.o(i.SysTick_Handler) refers to stm32f4xx_hal_cortex.o(i.HAL_SYSTICK_IRQHandler) for HAL_SYSTICK_IRQHandler
    stm32f4xx_it.o(i.USART2_IRQHandler) refers to stm32f4xx_hal_uart.o(i.HAL_UART_IRQHandler) for HAL_UART_IRQHandler
    stm32f4xx_it.o(i.USART2_IRQHandler) refers to example_usart.o(i.USART_ITCharManager) for USART_ITCharManager
    stm32f4xx_it.o(i.USART2_IRQHandler) refers to example_usart.o(.bss) for huart2
    example_usart.o(i.Fill_L6470_DaisyChainMnemonic) refers to example_usart.o(.bss) for L6470_DaisyChainMnemonic
    example_usart.o(i.Motor_Param_Reg_Init) refers to params.o(i.GetMotorParameterInitData) for GetMotorParameterInitData
    example_usart.o(i.Motor_Param_Reg_Init) refers to xnucleoihm02a1.o(i.EXPBRD_ID) for EXPBRD_ID
    example_usart.o(i.Motor_Param_Reg_Init) refers to xnucleoihm02a1.o(i.BSP_GetExpansionBoardHandle) for BSP_GetExpansionBoardHandle
    example_usart.o(i.USART_CheckAppCmd) refers to example_usart.o(i.USART_DecodeTextString) for USART_DecodeTextString
    example_usart.o(i.USART_CheckAppCmd) refers to stm32f4xx_hal_uart.o(i.HAL_UART_Receive_IT) for HAL_UART_Receive_IT
    example_usart.o(i.USART_CheckAppCmd) refers to xnucleoihm02a1.o(i.EXPBRD_ID) for EXPBRD_ID
    example_usart.o(i.USART_CheckAppCmd) refers to xnucleoihm02a1.o(i.BSP_Select) for BSP_Select
    example_usart.o(i.USART_CheckAppCmd) refers to example_usart.o(.bss) for huart2
    example_usart.o(i.USART_CheckAppCmd) refers to l6470.o(.data) for L6470_DaisyChainSpiRxStruct
    example_usart.o(i.USART_CheckAppCmd) refers to main.o(.data) for CurrBoard
    example_usart.o(i.USART_CheckTextCommandBundle) refers to example_usart.o(i.CompareTwoTextString) for CompareTwoTextString
    example_usart.o(i.USART_CheckTextCommandBundle) refers to l6470.o(i.L6470_ID) for L6470_ID
    example_usart.o(i.USART_CheckTextCommandBundle) refers to example_usart.o(i.str2num) for str2num
    example_usart.o(i.USART_CheckTextCommandBundle) refers to example_usart.o(.bss) for L6470_DaisyChainMnemonic
    example_usart.o(i.USART_CheckTextCommandBundle) refers to l6470.o(.constdata) for L6470_ApplicationCommand
    example_usart.o(i.USART_DecodeTextString) refers to example_usart.o(i.USART_SplitTextString) for USART_SplitTextString
    example_usart.o(i.USART_DecodeTextString) refers to example_usart.o(i.USART_CheckTextCommandBundle) for USART_CheckTextCommandBundle
    example_usart.o(i.USART_DecodeTextString) refers to l6470.o(i.L6470_DaisyChainCommand) for L6470_DaisyChainCommand
    example_usart.o(i.USART_DecodeTextString) refers to l6470.o(i.L6470_ExtractReturnedData) for L6470_ExtractReturnedData
    example_usart.o(i.USART_DecodeTextString) refers to example_usart.o(.data) for ReceivedValue
    example_usart.o(i.USART_DecodeTextString) refers to l6470.o(.constdata) for L6470_Register
    example_usart.o(i.USART_ITCharManager) refers to example_usart.o(i.USART_Transmit) for USART_Transmit
    example_usart.o(i.USART_PrintAllRegisterValues) refers to xnucleoihm02a1.o(i.EXPBRD_ID) for EXPBRD_ID
    example_usart.o(i.USART_PrintAllRegisterValues) refers to l6470.o(i.L6470_ID) for L6470_ID
    example_usart.o(i.USART_PrintAllRegisterValues) refers to example_usart.o(i.USART_PrintRegisterValues) for USART_PrintRegisterValues
    example_usart.o(i.USART_PrintRegisterValues) refers to xnucleoihm02a1.o(i.BSP_Select) for BSP_Select
    example_usart.o(i.USART_PrintRegisterValues) refers to example_usart.o(i.USART_Transmit) for USART_Transmit
    example_usart.o(i.USART_PrintRegisterValues) refers to example_usart.o(i.num2hex) for num2hex
    example_usart.o(i.USART_PrintRegisterValues) refers to l6470.o(i.L6470_GetParam) for L6470_GetParam
    example_usart.o(i.USART_PrintRegisterValues) refers to l6470.o(i.L6470_GetRegisterName) for L6470_GetRegisterName
    example_usart.o(i.USART_PrintRegisterValues) refers to example_usart.o(.bss) for huart2
    example_usart.o(i.USART_Transmit) refers to stm32f4xx_hal_uart.o(i.HAL_UART_Transmit) for HAL_UART_Transmit
    example_usart.o(i.USART_TxWelcomeMessage) refers to example_usart.o(i.USART_Transmit) for USART_Transmit
    example_usart.o(i.USART_TxWelcomeMessage) refers to example_usart.o(.bss) for huart2
    example_usart.o(i.num2hex) refers to example_usart.o(.bss) for HexValue
    example.o(i.MicrosteppingMotor_Example_01) refers to stm32f4xx_hal.o(i.HAL_Init) for HAL_Init
    example.o(i.MicrosteppingMotor_Example_01) refers to stm32f4xx_hal_gpio.o(i.HAL_GPIO_Init) for HAL_GPIO_Init
    example.o(i.MicrosteppingMotor_Example_01) refers to xnucleoihm02a1.o(i.EXPBRD_ID) for EXPBRD_ID
    example.o(i.MicrosteppingMotor_Example_01) refers to params.o(i.GetMotorParameterInitData) for GetMotorParameterInitData
    example.o(i.MicrosteppingMotor_Example_01) refers to xnucleoihm02a1.o(i.BSP_GetExpansionBoardHandle) for BSP_GetExpansionBoardHandle
    example.o(i.MicrosteppingMotor_Example_01) refers to l6470.o(i.L6470_ID) for L6470_ID
    example.o(i.MicrosteppingMotor_Example_01) refers to stm32f4xx_hal.o(i.HAL_Delay) for HAL_Delay
    example.o(i.MicrosteppingMotor_Example_01) refers to example.o(i.angle_to_steps) for angle_to_steps
    example.o(i.MicrosteppingMotor_Example_01) refers to stm32f4xx_hal_gpio.o(i.HAL_GPIO_ReadPin) for HAL_GPIO_ReadPin
    example.o(i.MicrosteppingMotor_Example_01) refers to f2d.o(.text) for __aeabi_f2d
    example.o(i.MicrosteppingMotor_Example_01) refers to dmul.o(.text) for __aeabi_dmul
    example.o(i.MicrosteppingMotor_Example_01) refers to dfixui.o(.text) for __aeabi_d2uiz
    example.o(i.MicrosteppingMotor_Example_01) refers to example.o(.bss) for GPIO_InitStructure
    example.o(i.MicrosteppingMotor_Example_01) refers to xnucleoihm02a1.o(i.BSP_L6470_SetParam) for BSP_L6470_SetParam
    example.o(i.MicrosteppingMotor_Example_01) refers to example.o(i.calc_alpha) for calc_alpha
    example.o(i.MicrosteppingMotor_Example_01) refers to ddiv.o(.text) for __aeabi_ddiv
    example.o(i.MicrosteppingMotor_Example_01) refers to d2f.o(.text) for __aeabi_d2f
    example.o(i.MicrosteppingMotor_Example_01) refers to example.o(i.calc_beta) for calc_beta
    example.o(i.MicrosteppingMotor_Example_01) refers to example.o(i.calc_gamma) for calc_gamma
    example.o(i.MicrosteppingMotor_Example_01) refers to dadd.o(.text) for __aeabi_dsub
    example.o(i.MicrosteppingMotor_Example_01) refers to example.o(i.gripper_angle_to_steps) for gripper_angle_to_steps
    example.o(i.MicrosteppingMotor_Example_01) refers to fabs.o(i.__hardfp_fabs) for __hardfp_fabs
    example.o(i.MicrosteppingMotor_Example_01) refers to example.o(i.find_Dir_beta) for find_Dir_beta
    example.o(i.angle_to_steps) refers to f2d.o(.text) for __aeabi_f2d
    example.o(i.angle_to_steps) refers to ddiv.o(.text) for __aeabi_ddiv
    example.o(i.angle_to_steps) refers to d2f.o(.text) for __aeabi_d2f
    example.o(i.calc_L) refers to f2d.o(.text) for __aeabi_f2d
    example.o(i.calc_L) refers to pow.o(i.__hardfp_pow) for __hardfp_pow
    example.o(i.calc_L) refers to dadd.o(.text) for __aeabi_dadd
    example.o(i.calc_L) refers to sqrt.o(i.__hardfp_sqrt) for __hardfp_sqrt
    example.o(i.calc_L) refers to d2f.o(.text) for __aeabi_d2f
    example.o(i.calc_alpha) refers to f2d.o(.text) for __aeabi_f2d
    example.o(i.calc_alpha) refers to atan.o(i.__hardfp_atan) for __hardfp_atan
    example.o(i.calc_alpha) refers to d2f.o(.text) for __aeabi_d2f
    example.o(i.calc_alpha) refers to dadd.o(.text) for __aeabi_dsub
    example.o(i.calc_beta) refers to example.o(i.calc_L) for calc_L
    example.o(i.calc_beta) refers to f2d.o(.text) for __aeabi_f2d
    example.o(i.calc_beta) refers to pow.o(i.__hardfp_pow) for __hardfp_pow
    example.o(i.calc_beta) refers to dadd.o(.text) for __aeabi_dsub
    example.o(i.calc_beta) refers to ddiv.o(.text) for __aeabi_ddiv
    example.o(i.calc_beta) refers to acos.o(i.__hardfp_acos) for __hardfp_acos
    example.o(i.calc_beta) refers to d2f.o(.text) for __aeabi_d2f
    example.o(i.calc_beta) refers to asin.o(i.__hardfp_asin) for __hardfp_asin
    example.o(i.calc_gamma) refers to example.o(i.calc_L) for calc_L
    example.o(i.calc_gamma) refers to pow.o(i.__hardfp_pow) for __hardfp_pow
    example.o(i.calc_gamma) refers to f2d.o(.text) for __aeabi_f2d
    example.o(i.calc_gamma) refers to dadd.o(.text) for __aeabi_dsub
    example.o(i.calc_gamma) refers to ddiv.o(.text) for __aeabi_ddiv
    example.o(i.calc_gamma) refers to acos.o(i.__hardfp_acos) for __hardfp_acos
    example.o(i.calc_gamma) refers to d2f.o(.text) for __aeabi_d2f
    example.o(i.calc_gamma) refers to example.o(i.calc_beta) for calc_beta
    example.o(i.gripper_angle_to_steps) refers to f2d.o(.text) for __aeabi_f2d
    example.o(i.gripper_angle_to_steps) refers to ddiv.o(.text) for __aeabi_ddiv
    example.o(i.gripper_angle_to_steps) refers to dfixi.o(.text) for __aeabi_d2iz
    main.o(i.Error_Handler) refers to stm32f4xx_nucleo.o(i.BSP_LED_On) for BSP_LED_On
    main.o(i.Read_ADC) refers to stm32f4xx_hal_adc.o(i.HAL_ADC_Start) for HAL_ADC_Start
    main.o(i.Read_ADC) refers to stm32f4xx_hal_adc.o(i.HAL_ADC_PollForConversion) for HAL_ADC_PollForConversion
    main.o(i.Read_ADC) refers to stm32f4xx_hal_adc.o(i.HAL_ADC_GetValue) for HAL_ADC_GetValue
    main.o(i.Read_ADC) refers to xnucleoihm02a1_interface.o(.bss) for hadc1
    main.o(i.main) refers to xnucleoihm02a1_interface.o(i.NUCLEO_Board_Init) for NUCLEO_Board_Init
    main.o(i.main) refers to xnucleoihm02a1.o(i.BSP_Init) for BSP_Init
    main.o(i.main) refers to example.o(i.MicrosteppingMotor_Example_01) for MicrosteppingMotor_Example_01
    params.o(i.GetMotorParameterInitData) refers to params.o(.constdata) for MotorParameterInitData
    system_stm32f4xx.o(i.SystemCoreClockUpdate) refers to system_stm32f4xx.o(.data) for SystemCoreClock
    system_stm32f4xx.o(i.SystemCoreClockUpdate) refers to system_stm32f4xx.o(.constdata) for AHBPrescTable
    startup_stm32f401xe.o(RESET) refers to startup_stm32f401xe.o(STACK) for __initial_sp
    startup_stm32f401xe.o(RESET) refers to startup_stm32f401xe.o(.text) for Reset_Handler
    startup_stm32f401xe.o(RESET) refers to stm32f4xx_it.o(i.SysTick_Handler) for SysTick_Handler
    startup_stm32f401xe.o(RESET) refers to stm32f4xx_it.o(i.EXTI0_IRQHandler) for EXTI0_IRQHandler
    startup_stm32f401xe.o(RESET) refers to stm32f4xx_it.o(i.EXTI1_IRQHandler) for EXTI1_IRQHandler
    startup_stm32f401xe.o(RESET) refers to stm32f4xx_it.o(i.EXTI4_IRQHandler) for EXTI4_IRQHandler
    startup_stm32f401xe.o(RESET) refers to stm32f4xx_it.o(i.USART2_IRQHandler) for USART2_IRQHandler
    startup_stm32f401xe.o(RESET) refers to stm32f4xx_it.o(i.EXTI15_10_IRQHandler) for EXTI15_10_IRQHandler
    startup_stm32f401xe.o(.text) refers to system_stm32f4xx.o(i.SystemInit) for SystemInit
    startup_stm32f401xe.o(.text) refers to entry.o(.ARM.Collect$$$$00000000) for __main
    acos.o(i.__hardfp_acos) refers (Special) to iusefp.o(.text) for __I$use$fp
    acos.o(i.__hardfp_acos) refers to dunder.o(i.__mathlib_dbl_infnan) for __mathlib_dbl_infnan
    acos.o(i.__hardfp_acos) refers to errno.o(i.__set_errno) for __set_errno
    acos.o(i.__hardfp_acos) refers to dunder.o(i.__mathlib_dbl_invalid) for __mathlib_dbl_invalid
    acos.o(i.__hardfp_acos) refers to dmul.o(.text) for __aeabi_dmul
    acos.o(i.__hardfp_acos) refers to poly.o(i.__kernel_poly) for __kernel_poly
    acos.o(i.__hardfp_acos) refers to dadd.o(.text) for __aeabi_dadd
    acos.o(i.__hardfp_acos) refers to ddiv.o(.text) for __aeabi_ddiv
    acos.o(i.__hardfp_acos) refers to sqrt.o(i.sqrt) for sqrt
    acos.o(i.__hardfp_acos) refers to acos.o(.constdata) for .constdata
    acos.o(i.__softfp_acos) refers (Special) to iusefp.o(.text) for __I$use$fp
    acos.o(i.__softfp_acos) refers to acos.o(i.__hardfp_acos) for __hardfp_acos
    acos.o(i.acos) refers (Special) to iusefp.o(.text) for __I$use$fp
    acos.o(i.acos) refers to acos.o(i.__hardfp_acos) for __hardfp_acos
    acos.o(.constdata) refers (Special) to iusefp.o(.text) for __I$use$fp
    acos_x.o(i.____hardfp_acos$lsc) refers (Special) to iusefp.o(.text) for __I$use$fp
    acos_x.o(i.____hardfp_acos$lsc) refers to dunder.o(i.__mathlib_dbl_infnan) for __mathlib_dbl_infnan
    acos_x.o(i.____hardfp_acos$lsc) refers to errno.o(i.__set_errno) for __set_errno
    acos_x.o(i.____hardfp_acos$lsc) refers to dmul.o(.text) for __aeabi_dmul
    acos_x.o(i.____hardfp_acos$lsc) refers to poly.o(i.__kernel_poly) for __kernel_poly
    acos_x.o(i.____hardfp_acos$lsc) refers to dadd.o(.text) for __aeabi_dadd
    acos_x.o(i.____hardfp_acos$lsc) refers to ddiv.o(.text) for __aeabi_ddiv
    acos_x.o(i.____hardfp_acos$lsc) refers to sqrt.o(i.sqrt) for sqrt
    acos_x.o(i.____hardfp_acos$lsc) refers to acos_x.o(.constdata) for .constdata
    acos_x.o(i.____softfp_acos$lsc) refers (Special) to iusefp.o(.text) for __I$use$fp
    acos_x.o(i.____softfp_acos$lsc) refers to acos_x.o(i.____hardfp_acos$lsc) for ____hardfp_acos$lsc
    acos_x.o(i.__acos$lsc) refers (Special) to iusefp.o(.text) for __I$use$fp
    acos_x.o(i.__acos$lsc) refers to acos_x.o(i.____hardfp_acos$lsc) for ____hardfp_acos$lsc
    acos_x.o(.constdata) refers (Special) to iusefp.o(.text) for __I$use$fp
    asin.o(i.__hardfp_asin) refers (Special) to iusefp.o(.text) for __I$use$fp
    asin.o(i.__hardfp_asin) refers to dunder.o(i.__mathlib_dbl_infnan) for __mathlib_dbl_infnan
    asin.o(i.__hardfp_asin) refers to dmul.o(.text) for __aeabi_dmul
    asin.o(i.__hardfp_asin) refers to dadd.o(.text) for __aeabi_dadd
    asin.o(i.__hardfp_asin) refers to errno.o(i.__set_errno) for __set_errno
    asin.o(i.__hardfp_asin) refers to dunder.o(i.__mathlib_dbl_invalid) for __mathlib_dbl_invalid
    asin.o(i.__hardfp_asin) refers to fpclassify.o(i.__ARM_fpclassify) for __ARM_fpclassify
    asin.o(i.__hardfp_asin) refers to dunder.o(i.__mathlib_dbl_underflow) for __mathlib_dbl_underflow
    asin.o(i.__hardfp_asin) refers to poly.o(i.__kernel_poly) for __kernel_poly
    asin.o(i.__hardfp_asin) refers to ddiv.o(.text) for __aeabi_ddiv
    asin.o(i.__hardfp_asin) refers to fabs.o(i.fabs) for fabs
    asin.o(i.__hardfp_asin) refers to sqrt.o(i.sqrt) for sqrt
    asin.o(i.__hardfp_asin) refers to asin.o(.constdata) for .constdata
    asin.o(i.__softfp_asin) refers (Special) to iusefp.o(.text) for __I$use$fp
    asin.o(i.__softfp_asin) refers to asin.o(i.__hardfp_asin) for __hardfp_asin
    asin.o(i.asin) refers (Special) to iusefp.o(.text) for __I$use$fp
    asin.o(i.asin) refers to asin.o(i.__hardfp_asin) for __hardfp_asin
    asin.o(.constdata) refers (Special) to iusefp.o(.text) for __I$use$fp
    asin_x.o(i.____hardfp_asin$lsc) refers (Special) to iusefp.o(.text) for __I$use$fp
    asin_x.o(i.____hardfp_asin$lsc) refers to dunder.o(i.__mathlib_dbl_infnan) for __mathlib_dbl_infnan
    asin_x.o(i.____hardfp_asin$lsc) refers to dmul.o(.text) for __aeabi_dmul
    asin_x.o(i.____hardfp_asin$lsc) refers to dadd.o(.text) for __aeabi_dadd
    asin_x.o(i.____hardfp_asin$lsc) refers to errno.o(i.__set_errno) for __set_errno
    asin_x.o(i.____hardfp_asin$lsc) refers to poly.o(i.__kernel_poly) for __kernel_poly
    asin_x.o(i.____hardfp_asin$lsc) refers to ddiv.o(.text) for __aeabi_ddiv
    asin_x.o(i.____hardfp_asin$lsc) refers to fabs.o(i.fabs) for fabs
    asin_x.o(i.____hardfp_asin$lsc) refers to sqrt.o(i.sqrt) for sqrt
    asin_x.o(i.____hardfp_asin$lsc) refers to asin_x.o(.constdata) for .constdata
    asin_x.o(i.____softfp_asin$lsc) refers (Special) to iusefp.o(.text) for __I$use$fp
    asin_x.o(i.____softfp_asin$lsc) refers to asin_x.o(i.____hardfp_asin$lsc) for ____hardfp_asin$lsc
    asin_x.o(i.__asin$lsc) refers (Special) to iusefp.o(.text) for __I$use$fp
    asin_x.o(i.__asin$lsc) refers to asin_x.o(i.____hardfp_asin$lsc) for ____hardfp_asin$lsc
    asin_x.o(.constdata) refers (Special) to iusefp.o(.text) for __I$use$fp
    atan.o(i.__hardfp_atan) refers (Special) to iusefp.o(.text) for __I$use$fp
    atan.o(i.__hardfp_atan) refers to dunder.o(i.__mathlib_dbl_infnan) for __mathlib_dbl_infnan
    atan.o(i.__hardfp_atan) refers to fpclassify.o(i.__ARM_fpclassify) for __ARM_fpclassify
    atan.o(i.__hardfp_atan) refers to dunder.o(i.__mathlib_dbl_underflow) for __mathlib_dbl_underflow
    atan.o(i.__hardfp_atan) refers to fabs.o(i.fabs) for fabs
    atan.o(i.__hardfp_atan) refers to dadd.o(.text) for __aeabi_dadd
    atan.o(i.__hardfp_atan) refers to dmul.o(.text) for __aeabi_dmul
    atan.o(i.__hardfp_atan) refers to ddiv.o(.text) for __aeabi_ddiv
    atan.o(i.__hardfp_atan) refers to poly.o(i.__kernel_poly) for __kernel_poly
    atan.o(i.__hardfp_atan) refers to atan.o(.constdata) for .constdata
    atan.o(i.__softfp_atan) refers (Special) to iusefp.o(.text) for __I$use$fp
    atan.o(i.__softfp_atan) refers to atan.o(i.__hardfp_atan) for __hardfp_atan
    atan.o(i.atan) refers (Special) to iusefp.o(.text) for __I$use$fp
    atan.o(i.atan) refers to atan.o(i.__hardfp_atan) for __hardfp_atan
    atan.o(.constdata) refers (Special) to iusefp.o(.text) for __I$use$fp
    atan_x.o(i.____hardfp_atan$lsc) refers (Special) to iusefp.o(.text) for __I$use$fp
    atan_x.o(i.____hardfp_atan$lsc) refers to dunder.o(i.__mathlib_dbl_infnan) for __mathlib_dbl_infnan
    atan_x.o(i.____hardfp_atan$lsc) refers to fabs.o(i.fabs) for fabs
    atan_x.o(i.____hardfp_atan$lsc) refers to dadd.o(.text) for __aeabi_dadd
    atan_x.o(i.____hardfp_atan$lsc) refers to dmul.o(.text) for __aeabi_dmul
    atan_x.o(i.____hardfp_atan$lsc) refers to ddiv.o(.text) for __aeabi_ddiv
    atan_x.o(i.____hardfp_atan$lsc) refers to poly.o(i.__kernel_poly) for __kernel_poly
    atan_x.o(i.____hardfp_atan$lsc) refers to atan_x.o(.constdata) for .constdata
    atan_x.o(i.____softfp_atan$lsc) refers (Special) to iusefp.o(.text) for __I$use$fp
    atan_x.o(i.____softfp_atan$lsc) refers to atan_x.o(i.____hardfp_atan$lsc) for ____hardfp_atan$lsc
    atan_x.o(i.__atan$lsc) refers (Special) to iusefp.o(.text) for __I$use$fp
    atan_x.o(i.__atan$lsc) refers to atan_x.o(i.____hardfp_atan$lsc) for ____hardfp_atan$lsc
    atan_x.o(.constdata) refers (Special) to iusefp.o(.text) for __I$use$fp
    fabs.o(i.__hardfp_fabs) refers (Special) to iusefp.o(.text) for __I$use$fp
    fabs.o(i.__softfp_fabs) refers (Special) to iusefp.o(.text) for __I$use$fp
    fabs.o(i.fabs) refers (Special) to iusefp.o(.text) for __I$use$fp
    pow.o(i.__hardfp_pow) refers (Special) to iusefp.o(.text) for __I$use$fp
    pow.o(i.__hardfp_pow) refers to dunder.o(i.__mathlib_dbl_infnan2) for __mathlib_dbl_infnan2
    pow.o(i.__hardfp_pow) refers to errno.o(i.__set_errno) for __set_errno
    pow.o(i.__hardfp_pow) refers to dunder.o(i.__mathlib_dbl_divzero) for __mathlib_dbl_divzero
    pow.o(i.__hardfp_pow) refers to dunder.o(i.__mathlib_dbl_overflow) for __mathlib_dbl_overflow
    pow.o(i.__hardfp_pow) refers to ddiv.o(.text) for __aeabi_ddiv
    pow.o(i.__hardfp_pow) refers to sqrt.o(i.sqrt) for sqrt
    pow.o(i.__hardfp_pow) refers to fabs.o(i.fabs) for fabs
    pow.o(i.__hardfp_pow) refers to dflti.o(.text) for __aeabi_i2d
    pow.o(i.__hardfp_pow) refers to dunder.o(i.__mathlib_dbl_invalid) for __mathlib_dbl_invalid
    pow.o(i.__hardfp_pow) refers to dmul.o(.text) for __aeabi_dmul
    pow.o(i.__hardfp_pow) refers to dunder.o(i.__mathlib_dbl_underflow) for __mathlib_dbl_underflow
    pow.o(i.__hardfp_pow) refers to dadd.o(.text) for __aeabi_dsub
    pow.o(i.__hardfp_pow) refers to qnan.o(.constdata) for __mathlib_zero
    pow.o(i.__hardfp_pow) refers to poly.o(i.__kernel_poly) for __kernel_poly
    pow.o(i.__hardfp_pow) refers to pow.o(.constdata) for .constdata
    pow.o(i.__hardfp_pow) refers to cdrcmple.o(.text) for __aeabi_cdrcmple
    pow.o(i.__hardfp_pow) refers to dscalb.o(.text) for __ARM_scalbn
    pow.o(i.__hardfp_pow) refers to fpclassify.o(i.__ARM_fpclassify) for __ARM_fpclassify
    pow.o(i.__softfp_pow) refers (Special) to iusefp.o(.text) for __I$use$fp
    pow.o(i.__softfp_pow) refers to pow.o(i.__hardfp_pow) for __hardfp_pow
    pow.o(i.pow) refers (Special) to iusefp.o(.text) for __I$use$fp
    pow.o(i.pow) refers to pow.o(i.__hardfp_pow) for __hardfp_pow
    pow.o(.constdata) refers (Special) to iusefp.o(.text) for __I$use$fp
    pow_x.o(i.____hardfp_pow$lsc) refers (Special) to iusefp.o(.text) for __I$use$fp
    pow_x.o(i.____hardfp_pow$lsc) refers to dunder.o(i.__mathlib_dbl_infnan2) for __mathlib_dbl_infnan2
    pow_x.o(i.____hardfp_pow$lsc) refers to errno.o(i.__set_errno) for __set_errno
    pow_x.o(i.____hardfp_pow$lsc) refers to ddiv.o(.text) for __aeabi_ddiv
    pow_x.o(i.____hardfp_pow$lsc) refers to sqrt.o(i.sqrt) for sqrt
    pow_x.o(i.____hardfp_pow$lsc) refers to fabs.o(i.fabs) for fabs
    pow_x.o(i.____hardfp_pow$lsc) refers to dflti.o(.text) for __aeabi_i2d
    pow_x.o(i.____hardfp_pow$lsc) refers to dmul.o(.text) for __aeabi_dmul
    pow_x.o(i.____hardfp_pow$lsc) refers to dadd.o(.text) for __aeabi_dsub
    pow_x.o(i.____hardfp_pow$lsc) refers to qnan.o(.constdata) for __mathlib_zero
    pow_x.o(i.____hardfp_pow$lsc) refers to poly.o(i.__kernel_poly) for __kernel_poly
    pow_x.o(i.____hardfp_pow$lsc) refers to pow_x.o(.constdata) for .constdata
    pow_x.o(i.____hardfp_pow$lsc) refers to cdrcmple.o(.text) for __aeabi_cdrcmple
    pow_x.o(i.____hardfp_pow$lsc) refers to dscalb.o(.text) for __ARM_scalbn
    pow_x.o(i.____softfp_pow$lsc) refers (Special) to iusefp.o(.text) for __I$use$fp
    pow_x.o(i.____softfp_pow$lsc) refers to pow_x.o(i.____hardfp_pow$lsc) for ____hardfp_pow$lsc
    pow_x.o(i.__pow$lsc) refers (Special) to iusefp.o(.text) for __I$use$fp
    pow_x.o(i.__pow$lsc) refers to pow_x.o(i.____hardfp_pow$lsc) for ____hardfp_pow$lsc
    pow_x.o(.constdata) refers (Special) to iusefp.o(.text) for __I$use$fp
    sqrt.o(i.__hardfp_sqrt) refers (Special) to iusefp.o(.text) for __I$use$fp
    sqrt.o(i.__hardfp_sqrt) refers to dsqrt.o(.text) for _dsqrt
    sqrt.o(i.__hardfp_sqrt) refers to errno.o(i.__set_errno) for __set_errno
    sqrt.o(i.__softfp_sqrt) refers (Special) to iusefp.o(.text) for __I$use$fp
    sqrt.o(i.__softfp_sqrt) refers to dsqrt.o(.text) for _dsqrt
    sqrt.o(i.__softfp_sqrt) refers to errno.o(i.__set_errno) for __set_errno
    sqrt.o(i.sqrt) refers (Special) to iusefp.o(.text) for __I$use$fp
    sqrt.o(i.sqrt) refers to dsqrt.o(.text) for _dsqrt
    sqrt.o(i.sqrt) refers to errno.o(i.__set_errno) for __set_errno
    sqrt_x.o(i.____hardfp_sqrt$lsc) refers (Special) to iusefp.o(.text) for __I$use$fp
    sqrt_x.o(i.____hardfp_sqrt$lsc) refers to cdcmple.o(.text) for __aeabi_cdcmple
    sqrt_x.o(i.____hardfp_sqrt$lsc) refers to errno.o(i.__set_errno) for __set_errno
    sqrt_x.o(i.____hardfp_sqrt$lsc) refers to dsqrt.o(.text) for _dsqrt
    sqrt_x.o(i.____softfp_sqrt$lsc) refers (Special) to iusefp.o(.text) for __I$use$fp
    sqrt_x.o(i.____softfp_sqrt$lsc) refers to cdcmple.o(.text) for __aeabi_cdcmple
    sqrt_x.o(i.____softfp_sqrt$lsc) refers to errno.o(i.__set_errno) for __set_errno
    sqrt_x.o(i.____softfp_sqrt$lsc) refers to dsqrt.o(.text) for _dsqrt
    sqrt_x.o(i.__sqrt$lsc) refers (Special) to iusefp.o(.text) for __I$use$fp
    sqrt_x.o(i.__sqrt$lsc) refers to cdcmple.o(.text) for __aeabi_cdcmple
    sqrt_x.o(i.__sqrt$lsc) refers to errno.o(i.__set_errno) for __set_errno
    sqrt_x.o(i.__sqrt$lsc) refers to dsqrt.o(.text) for _dsqrt
    entry.o(.ARM.Collect$$$$00000000) refers (Special) to entry10a.o(.ARM.Collect$$$$0000000D) for __rt_final_cpp
    entry.o(.ARM.Collect$$$$00000000) refers (Special) to entry11a.o(.ARM.Collect$$$$0000000F) for __rt_final_exit
    entry.o(.ARM.Collect$$$$00000000) refers (Special) to entry7b.o(.ARM.Collect$$$$00000008) for _main_clock
    entry.o(.ARM.Collect$$$$00000000) refers (Special) to entry8b.o(.ARM.Collect$$$$0000000A) for _main_cpp_init
    entry.o(.ARM.Collect$$$$00000000) refers (Special) to entry9a.o(.ARM.Collect$$$$0000000B) for _main_init
    entry.o(.ARM.Collect$$$$00000000) refers (Special) to entry5.o(.ARM.Collect$$$$00000004) for _main_scatterload
    entry.o(.ARM.Collect$$$$00000000) refers (Special) to entry2.o(.ARM.Collect$$$$00000001) for _main_stk
    dadd.o(.text) refers (Special) to iusefp.o(.text) for __I$use$fp
    dadd.o(.text) refers to llshl.o(.text) for __aeabi_llsl
    dadd.o(.text) refers to llsshr.o(.text) for __aeabi_lasr
    dadd.o(.text) refers to depilogue.o(.text) for _double_epilogue
    dmul.o(.text) refers (Special) to iusefp.o(.text) for __I$use$fp
    dmul.o(.text) refers to depilogue.o(.text) for _double_epilogue
    ddiv.o(.text) refers (Special) to iusefp.o(.text) for __I$use$fp
    ddiv.o(.text) refers to depilogue.o(.text) for _double_round
    dfltui.o(.text) refers (Special) to iusefp.o(.text) for __I$use$fp
    dfltui.o(.text) refers to depilogue.o(.text) for _double_epilogue
    dfixi.o(.text) refers (Special) to iusefp.o(.text) for __I$use$fp
    dfixi.o(.text) refers to llushr.o(.text) for __aeabi_llsr
    dfixui.o(.text) refers (Special) to iusefp.o(.text) for __I$use$fp
    dfixui.o(.text) refers to llushr.o(.text) for __aeabi_llsr
    f2d.o(.text) refers (Special) to iusefp.o(.text) for __I$use$fp
    cdcmple.o(.text) refers (Special) to iusefp.o(.text) for __I$use$fp
    d2f.o(.text) refers (Special) to iusefp.o(.text) for __I$use$fp
    d2f.o(.text) refers to fepilogue.o(.text) for _float_round
    dunder.o(i.__mathlib_dbl_divzero) refers to ddiv.o(.text) for __aeabi_ddiv
    dunder.o(i.__mathlib_dbl_infnan) refers to dadd.o(.text) for __aeabi_dadd
    dunder.o(i.__mathlib_dbl_infnan2) refers to dadd.o(.text) for __aeabi_dadd
    dunder.o(i.__mathlib_dbl_invalid) refers to ddiv.o(.text) for __aeabi_ddiv
    dunder.o(i.__mathlib_dbl_overflow) refers to dmul.o(.text) for __aeabi_dmul
    dunder.o(i.__mathlib_dbl_posinfnan) refers to dmul.o(.text) for __aeabi_dmul
    dunder.o(i.__mathlib_dbl_underflow) refers to dmul.o(.text) for __aeabi_dmul
    fpclassify.o(i.__ARM_fpclassify) refers (Special) to iusefp.o(.text) for __I$use$fp
    poly.o(i.__kernel_poly) refers (Special) to iusefp.o(.text) for __I$use$fp
    poly.o(i.__kernel_poly) refers to dmul.o(.text) for __aeabi_dmul
    poly.o(i.__kernel_poly) refers to dadd.o(.text) for __aeabi_dadd
    qnan.o(.constdata) refers (Special) to iusefp.o(.text) for __I$use$fp
    entry2.o(.ARM.Collect$$$$00000001) refers to entry2.o(.ARM.Collect$$$$00002712) for __lit__00000000
    entry2.o(.ARM.Collect$$$$00002712) refers to startup_stm32f401xe.o(STACK) for __initial_sp
    entry2.o(__vectab_stack_and_reset_area) refers to startup_stm32f401xe.o(STACK) for __initial_sp
    entry2.o(__vectab_stack_and_reset_area) refers to entry.o(.ARM.Collect$$$$00000000) for __main
    entry5.o(.ARM.Collect$$$$00000004) refers to init.o(.text) for __scatterload
    entry9a.o(.ARM.Collect$$$$0000000B) refers to main.o(i.main) for main
    entry9b.o(.ARM.Collect$$$$0000000C) refers to main.o(i.main) for main
    errno.o(i.__aeabi_errno_addr) refers to errno.o(.data) for .data
    errno.o(i.__read_errno) refers to errno.o(.data) for .data
    errno.o(i.__set_errno) refers to errno.o(.data) for .data
    depilogue.o(.text) refers to llshl.o(.text) for __aeabi_llsl
    depilogue.o(.text) refers to llushr.o(.text) for __aeabi_llsr
    dsqrt.o(.text) refers to llushr.o(.text) for __aeabi_llsr
    dsqrt.o(.text) refers to depilogue.o(.text) for _double_round
    dflti.o(.text) refers to depilogue.o(.text) for _double_epilogue
    init.o(.text) refers to entry5.o(.ARM.Collect$$$$00000004) for __main_after_scatterload


==============================================================================

Removing Unused input sections from the image.

    Removing l6470.o(.rev16_text), (4 bytes).
    Removing l6470.o(.revsh_text), (4 bytes).
    Removing l6470.o(.rrx_text), (6 bytes).
    Removing l6470.o(i.AbsPos_2_Position), (18 bytes).
    Removing l6470.o(i.Acc_2_Step_s2), (40 bytes).
    Removing l6470.o(i.Dec_2_Step_s2), (40 bytes).
    Removing l6470.o(i.FnSlpAcc_2_s_Step), (24 bytes).
    Removing l6470.o(i.FnSlpDec_2_s_Step), (24 bytes).
    Removing l6470.o(i.FsSpd_2_Step_s), (96 bytes).
    Removing l6470.o(i.IntSpeed_2_Step_s), (40 bytes).
    Removing l6470.o(i.L6470_GetRegisterName), (32 bytes).
    Removing l6470.o(i.MaxSpeed_2_Step_s), (40 bytes).
    Removing l6470.o(i.MinSpeed_2_Step_s), (40 bytes).
    Removing l6470.o(i.OcdTh_2_mA), (40 bytes).
    Removing l6470.o(i.Position_2_AbsPos), (38 bytes).
    Removing l6470.o(i.Speed_2_Step_s), (24 bytes).
    Removing l6470.o(i.StSlp_2_s_Step), (24 bytes).
    Removing l6470.o(i.StallTh_2_mA), (40 bytes).
    Removing l6470.o(i.Step_s_2_Speed), (44 bytes).
    Removing stm32f4xx_hal_rcc.o(.rev16_text), (4 bytes).
    Removing stm32f4xx_hal_rcc.o(.revsh_text), (4 bytes).
    Removing stm32f4xx_hal_rcc.o(.rrx_text), (6 bytes).
    Removing stm32f4xx_hal_rcc.o(i.HAL_RCC_CSSCallback), (2 bytes).
    Removing stm32f4xx_hal_rcc.o(i.HAL_RCC_DeInit), (2 bytes).
    Removing stm32f4xx_hal_rcc.o(i.HAL_RCC_DisableCSS), (12 bytes).
    Removing stm32f4xx_hal_rcc.o(i.HAL_RCC_EnableCSS), (12 bytes).
    Removing stm32f4xx_hal_rcc.o(i.HAL_RCC_GetClockConfig), (68 bytes).
    Removing stm32f4xx_hal_rcc.o(i.HAL_RCC_GetOscConfig), (292 bytes).
    Removing stm32f4xx_hal_rcc.o(i.HAL_RCC_GetPCLK1Freq), (44 bytes).
    Removing stm32f4xx_hal_rcc.o(i.HAL_RCC_MCOConfig), (364 bytes).
    Removing stm32f4xx_hal_rcc.o(i.HAL_RCC_NMI_IRQHandler), (32 bytes).
    Removing stm32f4xx_hal.o(.rev16_text), (4 bytes).
    Removing stm32f4xx_hal.o(.revsh_text), (4 bytes).
    Removing stm32f4xx_hal.o(.rrx_text), (6 bytes).
    Removing stm32f4xx_hal.o(i.HAL_DBGMCU_DisableDBGSleepMode), (20 bytes).
    Removing stm32f4xx_hal.o(i.HAL_DBGMCU_DisableDBGStandbyMode), (20 bytes).
    Removing stm32f4xx_hal.o(i.HAL_DBGMCU_DisableDBGStopMode), (20 bytes).
    Removing stm32f4xx_hal.o(i.HAL_DBGMCU_EnableDBGSleepMode), (20 bytes).
    Removing stm32f4xx_hal.o(i.HAL_DBGMCU_EnableDBGStandbyMode), (20 bytes).
    Removing stm32f4xx_hal.o(i.HAL_DBGMCU_EnableDBGStopMode), (20 bytes).
    Removing stm32f4xx_hal.o(i.HAL_DeInit), (68 bytes).
    Removing stm32f4xx_hal.o(i.HAL_DisableCompensationCell), (28 bytes).
    Removing stm32f4xx_hal.o(i.HAL_EnableCompensationCell), (28 bytes).
    Removing stm32f4xx_hal.o(i.HAL_GetDEVID), (16 bytes).
    Removing stm32f4xx_hal.o(i.HAL_GetHalVersion), (8 bytes).
    Removing stm32f4xx_hal.o(i.HAL_GetREVID), (12 bytes).
    Removing stm32f4xx_hal.o(i.HAL_MspDeInit), (2 bytes).
    Removing stm32f4xx_hal.o(i.HAL_MspInit), (2 bytes).
    Removing stm32f4xx_hal.o(i.HAL_ResumeTick), (18 bytes).
    Removing stm32f4xx_hal.o(i.HAL_SuspendTick), (18 bytes).
    Removing stm32f4xx_hal_adc_ex.o(.rev16_text), (4 bytes).
    Removing stm32f4xx_hal_adc_ex.o(.revsh_text), (4 bytes).
    Removing stm32f4xx_hal_adc_ex.o(.rrx_text), (6 bytes).
    Removing stm32f4xx_hal_adc_ex.o(i.ADC_MultiModeDMAConvCplt), (36 bytes).
    Removing stm32f4xx_hal_adc_ex.o(i.ADC_MultiModeDMAError), (28 bytes).
    Removing stm32f4xx_hal_adc_ex.o(i.ADC_MultiModeDMAHalfConvCplt), (14 bytes).
    Removing stm32f4xx_hal_adc_ex.o(i.HAL_ADCEx_InjectedConfigChannel), (1048 bytes).
    Removing stm32f4xx_hal_adc_ex.o(i.HAL_ADCEx_InjectedConvCpltCallback), (2 bytes).
    Removing stm32f4xx_hal_adc_ex.o(i.HAL_ADCEx_InjectedGetValue), (156 bytes).
    Removing stm32f4xx_hal_adc_ex.o(i.HAL_ADCEx_InjectedPollForConversion), (90 bytes).
    Removing stm32f4xx_hal_adc_ex.o(i.HAL_ADCEx_InjectedStart), (248 bytes).
    Removing stm32f4xx_hal_adc_ex.o(i.HAL_ADCEx_InjectedStart_IT), (276 bytes).
    Removing stm32f4xx_hal_adc_ex.o(i.HAL_ADCEx_InjectedStop), (24 bytes).
    Removing stm32f4xx_hal_adc_ex.o(i.HAL_ADCEx_InjectedStop_IT), (48 bytes).
    Removing stm32f4xx_hal_adc_ex.o(i.HAL_ADCEx_MultiModeConfigChannel), (468 bytes).
    Removing stm32f4xx_hal_adc_ex.o(i.HAL_ADCEx_MultiModeGetValue), (12 bytes).
    Removing stm32f4xx_hal_adc_ex.o(i.HAL_ADCEx_MultiModeStart_DMA), (384 bytes).
    Removing stm32f4xx_hal_adc_ex.o(i.HAL_ADCEx_MultiModeStop_DMA), (92 bytes).
    Removing stm32f4xx_hal_cortex.o(.rev16_text), (4 bytes).
    Removing stm32f4xx_hal_cortex.o(.revsh_text), (4 bytes).
    Removing stm32f4xx_hal_cortex.o(.rrx_text), (6 bytes).
    Removing stm32f4xx_hal_cortex.o(i.HAL_MPU_ConfigRegion), (608 bytes).
    Removing stm32f4xx_hal_cortex.o(i.HAL_NVIC_ClearPendingIRQ), (112 bytes).
    Removing stm32f4xx_hal_cortex.o(i.HAL_NVIC_GetActive), (120 bytes).
    Removing stm32f4xx_hal_cortex.o(i.HAL_NVIC_GetPendingIRQ), (120 bytes).
    Removing stm32f4xx_hal_cortex.o(i.HAL_NVIC_GetPriority), (248 bytes).
    Removing stm32f4xx_hal_cortex.o(i.HAL_NVIC_GetPriorityGrouping), (8 bytes).
    Removing stm32f4xx_hal_cortex.o(i.HAL_NVIC_SetPendingIRQ), (112 bytes).
    Removing stm32f4xx_hal_cortex.o(i.HAL_NVIC_SystemReset), (68 bytes).
    Removing stm32f4xx_hal_cortex.o(i.HAL_SYSTICK_CLKSourceConfig), (128 bytes).
    Removing stm32f4xx_hal_adc.o(.rev16_text), (4 bytes).
    Removing stm32f4xx_hal_adc.o(.revsh_text), (4 bytes).
    Removing stm32f4xx_hal_adc.o(.rrx_text), (6 bytes).
    Removing stm32f4xx_hal_adc.o(i.ADC_DMAConvCplt), (36 bytes).
    Removing stm32f4xx_hal_adc.o(i.ADC_DMAError), (28 bytes).
    Removing stm32f4xx_hal_adc.o(i.ADC_DMAHalfConvCplt), (14 bytes).
    Removing stm32f4xx_hal_adc.o(i.ADC_Init), (464 bytes).
    Removing stm32f4xx_hal_adc.o(i.HAL_ADC_AnalogWDGConfig), (444 bytes).
    Removing stm32f4xx_hal_adc.o(i.HAL_ADC_ConfigChannel), (564 bytes).
    Removing stm32f4xx_hal_adc.o(i.HAL_ADC_ConvCpltCallback), (2 bytes).
    Removing stm32f4xx_hal_adc.o(i.HAL_ADC_ConvHalfCpltCallback), (2 bytes).
    Removing stm32f4xx_hal_adc.o(i.HAL_ADC_DeInit), (120 bytes).
    Removing stm32f4xx_hal_adc.o(i.HAL_ADC_ErrorCallback), (2 bytes).
    Removing stm32f4xx_hal_adc.o(i.HAL_ADC_GetError), (6 bytes).
    Removing stm32f4xx_hal_adc.o(i.HAL_ADC_GetState), (8 bytes).
    Removing stm32f4xx_hal_adc.o(i.HAL_ADC_GetValue), (8 bytes).
    Removing stm32f4xx_hal_adc.o(i.HAL_ADC_IRQHandler), (480 bytes).
    Removing stm32f4xx_hal_adc.o(i.HAL_ADC_Init), (592 bytes).
    Removing stm32f4xx_hal_adc.o(i.HAL_ADC_LevelOutOfWindowCallback), (2 bytes).
    Removing stm32f4xx_hal_adc.o(i.HAL_ADC_MspDeInit), (2 bytes).
    Removing stm32f4xx_hal_adc.o(i.HAL_ADC_MspInit), (2 bytes).
    Removing stm32f4xx_hal_adc.o(i.HAL_ADC_PollForConversion), (130 bytes).
    Removing stm32f4xx_hal_adc.o(i.HAL_ADC_PollForEvent), (184 bytes).
    Removing stm32f4xx_hal_adc.o(i.HAL_ADC_Start), (320 bytes).
    Removing stm32f4xx_hal_adc.o(i.HAL_ADC_Start_DMA), (328 bytes).
    Removing stm32f4xx_hal_adc.o(i.HAL_ADC_Start_IT), (348 bytes).
    Removing stm32f4xx_hal_adc.o(i.HAL_ADC_Stop), (24 bytes).
    Removing stm32f4xx_hal_adc.o(i.HAL_ADC_Stop_DMA), (56 bytes).
    Removing stm32f4xx_hal_adc.o(i.HAL_ADC_Stop_IT), (48 bytes).
    Removing stm32f4xx_hal_gpio.o(.rev16_text), (4 bytes).
    Removing stm32f4xx_hal_gpio.o(.revsh_text), (4 bytes).
    Removing stm32f4xx_hal_gpio.o(.rrx_text), (6 bytes).
    Removing stm32f4xx_hal_gpio.o(i.HAL_GPIO_DeInit), (408 bytes).
    Removing stm32f4xx_hal_gpio.o(i.HAL_GPIO_LockPin), (124 bytes).
    Removing stm32f4xx_hal_gpio.o(i.HAL_GPIO_TogglePin), (92 bytes).
    Removing stm32f4xx_hal_dma.o(.rev16_text), (4 bytes).
    Removing stm32f4xx_hal_dma.o(.revsh_text), (4 bytes).
    Removing stm32f4xx_hal_dma.o(.rrx_text), (6 bytes).
    Removing stm32f4xx_hal_dma.o(i.DMA_CalcBaseAndBitshift), (52 bytes).
    Removing stm32f4xx_hal_dma.o(i.DMA_SetConfig), (44 bytes).
    Removing stm32f4xx_hal_dma.o(i.HAL_DMA_Abort), (94 bytes).
    Removing stm32f4xx_hal_dma.o(i.HAL_DMA_DeInit), (100 bytes).
    Removing stm32f4xx_hal_dma.o(i.HAL_DMA_GetError), (6 bytes).
    Removing stm32f4xx_hal_dma.o(i.HAL_DMA_GetState), (8 bytes).
    Removing stm32f4xx_hal_dma.o(i.HAL_DMA_IRQHandler), (536 bytes).
    Removing stm32f4xx_hal_dma.o(i.HAL_DMA_Init), (760 bytes).
    Removing stm32f4xx_hal_dma.o(i.HAL_DMA_PollForTransfer), (404 bytes).
    Removing stm32f4xx_hal_dma.o(i.HAL_DMA_Start), (164 bytes).
    Removing stm32f4xx_hal_dma.o(i.HAL_DMA_Start_IT), (188 bytes).
    Removing stm32f4xx_hal_dma.o(.constdata), (8 bytes).
    Removing stm32f4xx_hal_spi.o(.rev16_text), (4 bytes).
    Removing stm32f4xx_hal_spi.o(.revsh_text), (4 bytes).
    Removing stm32f4xx_hal_spi.o(.rrx_text), (6 bytes).
    Removing stm32f4xx_hal_spi.o(i.HAL_SPI_DMAPause), (62 bytes).
    Removing stm32f4xx_hal_spi.o(i.HAL_SPI_DMAResume), (62 bytes).
    Removing stm32f4xx_hal_spi.o(i.HAL_SPI_DMAStop), (58 bytes).
    Removing stm32f4xx_hal_spi.o(i.HAL_SPI_DeInit), (48 bytes).
    Removing stm32f4xx_hal_spi.o(i.HAL_SPI_ErrorCallback), (2 bytes).
    Removing stm32f4xx_hal_spi.o(i.HAL_SPI_GetError), (6 bytes).
    Removing stm32f4xx_hal_spi.o(i.HAL_SPI_GetState), (8 bytes).
    Removing stm32f4xx_hal_spi.o(i.HAL_SPI_IRQHandler), (250 bytes).
    Removing stm32f4xx_hal_spi.o(i.HAL_SPI_MspDeInit), (2 bytes).
    Removing stm32f4xx_hal_spi.o(i.HAL_SPI_MspInit), (2 bytes).
    Removing stm32f4xx_hal_spi.o(i.HAL_SPI_Receive), (572 bytes).
    Removing stm32f4xx_hal_spi.o(i.HAL_SPI_Receive_DMA), (272 bytes).
    Removing stm32f4xx_hal_spi.o(i.HAL_SPI_Receive_IT), (228 bytes).
    Removing stm32f4xx_hal_spi.o(i.HAL_SPI_RxCpltCallback), (2 bytes).
    Removing stm32f4xx_hal_spi.o(i.HAL_SPI_RxHalfCpltCallback), (2 bytes).
    Removing stm32f4xx_hal_spi.o(i.HAL_SPI_Transmit), (532 bytes).
    Removing stm32f4xx_hal_spi.o(i.HAL_SPI_TransmitReceive_DMA), (420 bytes).
    Removing stm32f4xx_hal_spi.o(i.HAL_SPI_TransmitReceive_IT), (292 bytes).
    Removing stm32f4xx_hal_spi.o(i.HAL_SPI_Transmit_DMA), (316 bytes).
    Removing stm32f4xx_hal_spi.o(i.HAL_SPI_Transmit_IT), (292 bytes).
    Removing stm32f4xx_hal_spi.o(i.HAL_SPI_TxCpltCallback), (2 bytes).
    Removing stm32f4xx_hal_spi.o(i.HAL_SPI_TxHalfCpltCallback), (2 bytes).
    Removing stm32f4xx_hal_spi.o(i.HAL_SPI_TxRxCpltCallback), (2 bytes).
    Removing stm32f4xx_hal_spi.o(i.HAL_SPI_TxRxHalfCpltCallback), (2 bytes).
    Removing stm32f4xx_hal_spi.o(i.SPI_2LinesRxISR), (56 bytes).
    Removing stm32f4xx_hal_spi.o(i.SPI_DMAEndTransmitReceive), (162 bytes).
    Removing stm32f4xx_hal_spi.o(i.SPI_DMAError), (34 bytes).
    Removing stm32f4xx_hal_spi.o(i.SPI_DMAHalfReceiveCplt), (14 bytes).
    Removing stm32f4xx_hal_spi.o(i.SPI_DMAHalfTransmitCplt), (14 bytes).
    Removing stm32f4xx_hal_spi.o(i.SPI_DMAHalfTransmitReceiveCplt), (14 bytes).
    Removing stm32f4xx_hal_spi.o(i.SPI_DMAReceiveCplt), (214 bytes).
    Removing stm32f4xx_hal_spi.o(i.SPI_DMATransmitCplt), (124 bytes).
    Removing stm32f4xx_hal_spi.o(i.SPI_DMATransmitReceiveCplt), (56 bytes).
    Removing stm32f4xx_hal_spi.o(i.SPI_RxCloseIRQHandler), (238 bytes).
    Removing stm32f4xx_hal_spi.o(i.SPI_RxISR), (82 bytes).
    Removing stm32f4xx_hal_spi.o(i.SPI_TxCloseIRQHandler), (158 bytes).
    Removing stm32f4xx_hal_spi.o(i.SPI_TxISR), (74 bytes).
    Removing stm32f4xx_hal_pwr.o(.rev16_text), (4 bytes).
    Removing stm32f4xx_hal_pwr.o(.revsh_text), (4 bytes).
    Removing stm32f4xx_hal_pwr.o(.rrx_text), (6 bytes).
    Removing stm32f4xx_hal_pwr.o(i.HAL_PWR_ConfigPVD), (376 bytes).
    Removing stm32f4xx_hal_pwr.o(i.HAL_PWR_DeInit), (28 bytes).
    Removing stm32f4xx_hal_pwr.o(i.HAL_PWR_DisableBkUpAccess), (28 bytes).
    Removing stm32f4xx_hal_pwr.o(i.HAL_PWR_DisablePVD), (24 bytes).
    Removing stm32f4xx_hal_pwr.o(i.HAL_PWR_DisableSEVOnPend), (20 bytes).
    Removing stm32f4xx_hal_pwr.o(i.HAL_PWR_DisableSleepOnExit), (20 bytes).
    Removing stm32f4xx_hal_pwr.o(i.HAL_PWR_DisableWakeUpPin), (100 bytes).
    Removing stm32f4xx_hal_pwr.o(i.HAL_PWR_EnableBkUpAccess), (24 bytes).
    Removing stm32f4xx_hal_pwr.o(i.HAL_PWR_EnablePVD), (24 bytes).
    Removing stm32f4xx_hal_pwr.o(i.HAL_PWR_EnableSEVOnPend), (20 bytes).
    Removing stm32f4xx_hal_pwr.o(i.HAL_PWR_EnableSleepOnExit), (20 bytes).
    Removing stm32f4xx_hal_pwr.o(i.HAL_PWR_EnableWakeUpPin), (100 bytes).
    Removing stm32f4xx_hal_pwr.o(i.HAL_PWR_EnterSLEEPMode), (136 bytes).
    Removing stm32f4xx_hal_pwr.o(i.HAL_PWR_EnterSTANDBYMode), (40 bytes).
    Removing stm32f4xx_hal_pwr.o(i.HAL_PWR_EnterSTOPMode), (168 bytes).
    Removing stm32f4xx_hal_pwr.o(i.HAL_PWR_PVDCallback), (2 bytes).
    Removing stm32f4xx_hal_pwr.o(i.HAL_PWR_PVD_IRQHandler), (32 bytes).
    Removing stm32f4xx_hal_uart.o(.rev16_text), (4 bytes).
    Removing stm32f4xx_hal_uart.o(.revsh_text), (4 bytes).
    Removing stm32f4xx_hal_uart.o(.rrx_text), (6 bytes).
    Removing stm32f4xx_hal_uart.o(i.HAL_HalfDuplex_EnableReceiver), (68 bytes).
    Removing stm32f4xx_hal_uart.o(i.HAL_HalfDuplex_EnableTransmitter), (68 bytes).
    Removing stm32f4xx_hal_uart.o(i.HAL_HalfDuplex_Init), (272 bytes).
    Removing stm32f4xx_hal_uart.o(i.HAL_LIN_Init), (296 bytes).
    Removing stm32f4xx_hal_uart.o(i.HAL_LIN_SendBreak), (172 bytes).
    Removing stm32f4xx_hal_uart.o(i.HAL_MultiProcessor_EnterMuteMode), (172 bytes).
    Removing stm32f4xx_hal_uart.o(i.HAL_MultiProcessor_ExitMuteMode), (172 bytes).
    Removing stm32f4xx_hal_uart.o(i.HAL_MultiProcessor_Init), (344 bytes).
    Removing stm32f4xx_hal_uart.o(i.HAL_UART_DMAPause), (114 bytes).
    Removing stm32f4xx_hal_uart.o(i.HAL_UART_DMAResume), (152 bytes).
    Removing stm32f4xx_hal_uart.o(i.HAL_UART_DMAStop), (58 bytes).
    Removing stm32f4xx_hal_uart.o(i.HAL_UART_DeInit), (152 bytes).
    Removing stm32f4xx_hal_uart.o(i.HAL_UART_GetError), (6 bytes).
    Removing stm32f4xx_hal_uart.o(i.HAL_UART_GetState), (8 bytes).
    Removing stm32f4xx_hal_uart.o(i.HAL_UART_Init), (340 bytes).
    Removing stm32f4xx_hal_uart.o(i.HAL_UART_MspDeInit), (2 bytes).
    Removing stm32f4xx_hal_uart.o(i.HAL_UART_MspInit), (2 bytes).
    Removing stm32f4xx_hal_uart.o(i.HAL_UART_Receive), (248 bytes).
    Removing stm32f4xx_hal_uart.o(i.HAL_UART_Receive_DMA), (160 bytes).
    Removing stm32f4xx_hal_uart.o(i.HAL_UART_Receive_IT), (134 bytes).
    Removing stm32f4xx_hal_uart.o(i.HAL_UART_RxHalfCpltCallback), (2 bytes).
    Removing stm32f4xx_hal_uart.o(i.HAL_UART_Transmit_DMA), (168 bytes).
    Removing stm32f4xx_hal_uart.o(i.HAL_UART_Transmit_IT), (134 bytes).
    Removing stm32f4xx_hal_uart.o(i.HAL_UART_TxHalfCpltCallback), (2 bytes).
    Removing stm32f4xx_hal_uart.o(i.UART_DMAError), (34 bytes).
    Removing stm32f4xx_hal_uart.o(i.UART_DMAReceiveCplt), (62 bytes).
    Removing stm32f4xx_hal_uart.o(i.UART_DMARxHalfCplt), (14 bytes).
    Removing stm32f4xx_hal_uart.o(i.UART_DMATransmitCplt), (54 bytes).
    Removing stm32f4xx_hal_uart.o(i.UART_DMATxHalfCplt), (14 bytes).
    Removing stm32f4xx_hal_uart.o(i.UART_SetConfig), (712 bytes).
    Removing stm32f4xx_hal_dma_ex.o(.rev16_text), (4 bytes).
    Removing stm32f4xx_hal_dma_ex.o(.revsh_text), (4 bytes).
    Removing stm32f4xx_hal_dma_ex.o(.rrx_text), (6 bytes).
    Removing stm32f4xx_hal_dma_ex.o(i.DMA_MultiBufferSetConfig), (32 bytes).
    Removing stm32f4xx_hal_dma_ex.o(i.HAL_DMAEx_ChangeMemory), (18 bytes).
    Removing stm32f4xx_hal_dma_ex.o(i.HAL_DMAEx_MultiBufferStart), (212 bytes).
    Removing stm32f4xx_hal_dma_ex.o(i.HAL_DMAEx_MultiBufferStart_IT), (272 bytes).
    Removing stm32f4xx_hal_flash_ex.o(.rev16_text), (4 bytes).
    Removing stm32f4xx_hal_flash_ex.o(.revsh_text), (4 bytes).
    Removing stm32f4xx_hal_flash_ex.o(.rrx_text), (6 bytes).
    Removing stm32f4xx_hal_flash_ex.o(i.FLASH_Erase_Sector), (240 bytes).
    Removing stm32f4xx_hal_flash_ex.o(i.FLASH_FlushCaches), (120 bytes).
    Removing stm32f4xx_hal_flash_ex.o(i.FLASH_MassErase), (160 bytes).
    Removing stm32f4xx_hal_flash_ex.o(i.FLASH_OB_BOR_LevelConfig), (124 bytes).
    Removing stm32f4xx_hal_flash_ex.o(i.FLASH_OB_DisablePCROP), (120 bytes).
    Removing stm32f4xx_hal_flash_ex.o(i.FLASH_OB_DisableWRP), (140 bytes).
    Removing stm32f4xx_hal_flash_ex.o(i.FLASH_OB_EnablePCROP), (124 bytes).
    Removing stm32f4xx_hal_flash_ex.o(i.FLASH_OB_EnableWRP), (140 bytes).
    Removing stm32f4xx_hal_flash_ex.o(i.FLASH_OB_GetBOR), (16 bytes).
    Removing stm32f4xx_hal_flash_ex.o(i.FLASH_OB_GetRDP), (36 bytes).
    Removing stm32f4xx_hal_flash_ex.o(i.FLASH_OB_GetUser), (16 bytes).
    Removing stm32f4xx_hal_flash_ex.o(i.FLASH_OB_GetWRP), (12 bytes).
    Removing stm32f4xx_hal_flash_ex.o(i.FLASH_OB_RDP_LevelConfig), (120 bytes).
    Removing stm32f4xx_hal_flash_ex.o(i.FLASH_OB_UserConfig), (176 bytes).
    Removing stm32f4xx_hal_flash_ex.o(i.HAL_FLASHEx_AdvOBGetConfig), (12 bytes).
    Removing stm32f4xx_hal_flash_ex.o(i.HAL_FLASHEx_AdvOBProgram), (148 bytes).
    Removing stm32f4xx_hal_flash_ex.o(i.HAL_FLASHEx_Erase), (284 bytes).
    Removing stm32f4xx_hal_flash_ex.o(i.HAL_FLASHEx_Erase_IT), (236 bytes).
    Removing stm32f4xx_hal_flash_ex.o(i.HAL_FLASHEx_OBGetConfig), (34 bytes).
    Removing stm32f4xx_hal_flash_ex.o(i.HAL_FLASHEx_OBProgram), (252 bytes).
    Removing stm32f4xx_hal_flash_ex.o(i.HAL_FLASHEx_OB_DeSelectPCROP), (24 bytes).
    Removing stm32f4xx_hal_flash_ex.o(i.HAL_FLASHEx_OB_SelectPCROP), (28 bytes).
    Removing stm32f4xx_hal_flash_ramfunc.o(.rev16_text), (4 bytes).
    Removing stm32f4xx_hal_flash_ramfunc.o(.revsh_text), (4 bytes).
    Removing stm32f4xx_hal_flash_ramfunc.o(.rrx_text), (6 bytes).
    Removing stm32f4xx_hal_pwr_ex.o(.rev16_text), (4 bytes).
    Removing stm32f4xx_hal_pwr_ex.o(.revsh_text), (4 bytes).
    Removing stm32f4xx_hal_pwr_ex.o(.rrx_text), (6 bytes).
    Removing stm32f4xx_hal_pwr_ex.o(i.HAL_PWREx_ControlVoltageScaling), (316 bytes).
    Removing stm32f4xx_hal_pwr_ex.o(i.HAL_PWREx_DisableBkUpReg), (76 bytes).
    Removing stm32f4xx_hal_pwr_ex.o(i.HAL_PWREx_DisableFlashPowerDown), (28 bytes).
    Removing stm32f4xx_hal_pwr_ex.o(i.HAL_PWREx_DisableLowRegulatorLowVoltage), (28 bytes).
    Removing stm32f4xx_hal_pwr_ex.o(i.HAL_PWREx_DisableMainRegulatorLowVoltage), (28 bytes).
    Removing stm32f4xx_hal_pwr_ex.o(i.HAL_PWREx_EnableBkUpReg), (76 bytes).
    Removing stm32f4xx_hal_pwr_ex.o(i.HAL_PWREx_EnableFlashPowerDown), (24 bytes).
    Removing stm32f4xx_hal_pwr_ex.o(i.HAL_PWREx_EnableLowRegulatorLowVoltage), (24 bytes).
    Removing stm32f4xx_hal_pwr_ex.o(i.HAL_PWREx_EnableMainRegulatorLowVoltage), (24 bytes).
    Removing stm32f4xx_hal_pwr_ex.o(i.HAL_PWREx_GetVoltageRange), (16 bytes).
    Removing stm32f4xx_hal_rcc_ex.o(.rev16_text), (4 bytes).
    Removing stm32f4xx_hal_rcc_ex.o(.revsh_text), (4 bytes).
    Removing stm32f4xx_hal_rcc_ex.o(.rrx_text), (6 bytes).
    Removing stm32f4xx_hal_rcc_ex.o(i.HAL_RCCEx_GetPeriphCLKConfig), (80 bytes).
    Removing stm32f4xx_hal_rcc_ex.o(i.HAL_RCCEx_PeriphCLKConfig), (560 bytes).
    Removing stm32f4xx_hal_rcc_ex.o(i.HAL_RCC_DeInit), (112 bytes).
    Removing stm32f4xx_hal_flash.o(.rev16_text), (4 bytes).
    Removing stm32f4xx_hal_flash.o(.revsh_text), (4 bytes).
    Removing stm32f4xx_hal_flash.o(.rrx_text), (6 bytes).
    Removing stm32f4xx_hal_flash.o(i.FLASH_Program_Byte), (136 bytes).
    Removing stm32f4xx_hal_flash.o(i.FLASH_Program_DoubleWord), (144 bytes).
    Removing stm32f4xx_hal_flash.o(i.FLASH_Program_HalfWord), (140 bytes).
    Removing stm32f4xx_hal_flash.o(i.FLASH_Program_Word), (140 bytes).
    Removing stm32f4xx_hal_flash.o(i.FLASH_SetErrorCode), (180 bytes).
    Removing stm32f4xx_hal_flash.o(i.FLASH_WaitForLastOperation), (100 bytes).
    Removing stm32f4xx_hal_flash.o(i.HAL_FLASH_EndOfOperationCallback), (2 bytes).
    Removing stm32f4xx_hal_flash.o(i.HAL_FLASH_GetError), (12 bytes).
    Removing stm32f4xx_hal_flash.o(i.HAL_FLASH_IRQHandler), (272 bytes).
    Removing stm32f4xx_hal_flash.o(i.HAL_FLASH_Lock), (20 bytes).
    Removing stm32f4xx_hal_flash.o(i.HAL_FLASH_OB_Launch), (28 bytes).
    Removing stm32f4xx_hal_flash.o(i.HAL_FLASH_OB_Lock), (20 bytes).
    Removing stm32f4xx_hal_flash.o(i.HAL_FLASH_OB_Unlock), (44 bytes).
    Removing stm32f4xx_hal_flash.o(i.HAL_FLASH_OperationErrorCallback), (2 bytes).
    Removing stm32f4xx_hal_flash.o(i.HAL_FLASH_Program), (240 bytes).
    Removing stm32f4xx_hal_flash.o(i.HAL_FLASH_Program_IT), (224 bytes).
    Removing stm32f4xx_hal_flash.o(i.HAL_FLASH_Unlock), (44 bytes).
    Removing stm32f4xx_hal_flash.o(.bss), (32 bytes).
    Removing stm32f4xx_hal_tim.o(.rev16_text), (4 bytes).
    Removing stm32f4xx_hal_tim.o(.revsh_text), (4 bytes).
    Removing stm32f4xx_hal_tim.o(.rrx_text), (6 bytes).
    Removing stm32f4xx_hal_tim.o(i.HAL_TIM_Base_DeInit), (232 bytes).
    Removing stm32f4xx_hal_tim.o(i.HAL_TIM_Base_GetState), (8 bytes).
    Removing stm32f4xx_hal_tim.o(i.HAL_TIM_Base_Init), (284 bytes).
    Removing stm32f4xx_hal_tim.o(i.HAL_TIM_Base_MspDeInit), (2 bytes).
    Removing stm32f4xx_hal_tim.o(i.HAL_TIM_Base_MspInit), (2 bytes).
    Removing stm32f4xx_hal_tim.o(i.HAL_TIM_Base_Start), (196 bytes).
    Removing stm32f4xx_hal_tim.o(i.HAL_TIM_Base_Start_DMA), (232 bytes).
    Removing stm32f4xx_hal_tim.o(i.HAL_TIM_Base_Start_IT), (196 bytes).
    Removing stm32f4xx_hal_tim.o(i.HAL_TIM_Base_Stop), (224 bytes).
    Removing stm32f4xx_hal_tim.o(i.HAL_TIM_Base_Stop_DMA), (192 bytes).
    Removing stm32f4xx_hal_tim.o(i.HAL_TIM_Base_Stop_IT), (224 bytes).
    Removing stm32f4xx_hal_tim.o(i.HAL_TIM_ConfigClockSource), (1212 bytes).
    Removing stm32f4xx_hal_tim.o(i.HAL_TIM_ConfigOCrefClear), (692 bytes).
    Removing stm32f4xx_hal_tim.o(i.HAL_TIM_ConfigTI1Input), (172 bytes).
    Removing stm32f4xx_hal_tim.o(i.HAL_TIM_DMABurst_ReadStart), (744 bytes).
    Removing stm32f4xx_hal_tim.o(i.HAL_TIM_DMABurst_ReadStop), (208 bytes).
    Removing stm32f4xx_hal_tim.o(i.HAL_TIM_DMABurst_WriteStart), (744 bytes).
    Removing stm32f4xx_hal_tim.o(i.HAL_TIM_DMABurst_WriteStop), (208 bytes).
    Removing stm32f4xx_hal_tim.o(i.HAL_TIM_Encoder_DeInit), (236 bytes).
    Removing stm32f4xx_hal_tim.o(i.HAL_TIM_Encoder_GetState), (8 bytes).
    Removing stm32f4xx_hal_tim.o(i.HAL_TIM_Encoder_Init), (572 bytes).
    Removing stm32f4xx_hal_tim.o(i.HAL_TIM_Encoder_MspDeInit), (2 bytes).
    Removing stm32f4xx_hal_tim.o(i.HAL_TIM_Encoder_MspInit), (2 bytes).
    Removing stm32f4xx_hal_tim.o(i.HAL_TIM_Encoder_Start), (220 bytes).
    Removing stm32f4xx_hal_tim.o(i.HAL_TIM_Encoder_Start_DMA), (456 bytes).
    Removing stm32f4xx_hal_tim.o(i.HAL_TIM_Encoder_Start_IT), (268 bytes).
    Removing stm32f4xx_hal_tim.o(i.HAL_TIM_Encoder_Stop), (244 bytes).
    Removing stm32f4xx_hal_tim.o(i.HAL_TIM_Encoder_Stop_DMA), (280 bytes).
    Removing stm32f4xx_hal_tim.o(i.HAL_TIM_Encoder_Stop_IT), (292 bytes).
    Removing stm32f4xx_hal_tim.o(i.HAL_TIM_ErrorCallback), (2 bytes).
    Removing stm32f4xx_hal_tim.o(i.HAL_TIM_GenerateEvent), (244 bytes).
    Removing stm32f4xx_hal_tim.o(i.HAL_TIM_IC_CaptureCallback), (2 bytes).
    Removing stm32f4xx_hal_tim.o(i.HAL_TIM_IC_ConfigChannel), (664 bytes).
    Removing stm32f4xx_hal_tim.o(i.HAL_TIM_IC_DeInit), (236 bytes).
    Removing stm32f4xx_hal_tim.o(i.HAL_TIM_IC_GetState), (8 bytes).
    Removing stm32f4xx_hal_tim.o(i.HAL_TIM_IC_Init), (288 bytes).
    Removing stm32f4xx_hal_tim.o(i.HAL_TIM_IC_MspDeInit), (2 bytes).
    Removing stm32f4xx_hal_tim.o(i.HAL_TIM_IC_MspInit), (2 bytes).
    Removing stm32f4xx_hal_tim.o(i.HAL_TIM_IC_Start), (280 bytes).
    Removing stm32f4xx_hal_tim.o(i.HAL_TIM_IC_Start_DMA), (568 bytes).
    Removing stm32f4xx_hal_tim.o(i.HAL_TIM_IC_Start_IT), (356 bytes).
    Removing stm32f4xx_hal_tim.o(i.HAL_TIM_IC_Stop), (304 bytes).
    Removing stm32f4xx_hal_tim.o(i.HAL_TIM_IC_Stop_DMA), (440 bytes).
    Removing stm32f4xx_hal_tim.o(i.HAL_TIM_IC_Stop_IT), (380 bytes).
    Removing stm32f4xx_hal_tim.o(i.HAL_TIM_IRQHandler), (406 bytes).
    Removing stm32f4xx_hal_tim.o(i.HAL_TIM_OC_ConfigChannel), (616 bytes).
    Removing stm32f4xx_hal_tim.o(i.HAL_TIM_OC_DeInit), (236 bytes).
    Removing stm32f4xx_hal_tim.o(i.HAL_TIM_OC_DelayElapsedCallback), (2 bytes).
    Removing stm32f4xx_hal_tim.o(i.HAL_TIM_OC_GetState), (8 bytes).
    Removing stm32f4xx_hal_tim.o(i.HAL_TIM_OC_Init), (288 bytes).
    Removing stm32f4xx_hal_tim.o(i.HAL_TIM_OC_MspDeInit), (2 bytes).
    Removing stm32f4xx_hal_tim.o(i.HAL_TIM_OC_MspInit), (2 bytes).
    Removing stm32f4xx_hal_tim.o(i.HAL_TIM_OC_Start), (308 bytes).
    Removing stm32f4xx_hal_tim.o(i.HAL_TIM_OC_Start_DMA), (544 bytes).
    Removing stm32f4xx_hal_tim.o(i.HAL_TIM_OC_Start_IT), (384 bytes).
    Removing stm32f4xx_hal_tim.o(i.HAL_TIM_OC_Stop), (360 bytes).
    Removing stm32f4xx_hal_tim.o(i.HAL_TIM_OC_Stop_DMA), (440 bytes).
    Removing stm32f4xx_hal_tim.o(i.HAL_TIM_OC_Stop_IT), (436 bytes).
    Removing stm32f4xx_hal_tim.o(i.HAL_TIM_OnePulse_ConfigChannel), (688 bytes).
    Removing stm32f4xx_hal_tim.o(i.HAL_TIM_OnePulse_DeInit), (236 bytes).
    Removing stm32f4xx_hal_tim.o(i.HAL_TIM_OnePulse_GetState), (8 bytes).
    Removing stm32f4xx_hal_tim.o(i.HAL_TIM_OnePulse_Init), (332 bytes).
    Removing stm32f4xx_hal_tim.o(i.HAL_TIM_OnePulse_MspDeInit), (2 bytes).
    Removing stm32f4xx_hal_tim.o(i.HAL_TIM_OnePulse_MspInit), (2 bytes).
    Removing stm32f4xx_hal_tim.o(i.HAL_TIM_OnePulse_Start), (64 bytes).
    Removing stm32f4xx_hal_tim.o(i.HAL_TIM_OnePulse_Start_IT), (88 bytes).
    Removing stm32f4xx_hal_tim.o(i.HAL_TIM_OnePulse_Stop), (128 bytes).
    Removing stm32f4xx_hal_tim.o(i.HAL_TIM_OnePulse_Stop_IT), (152 bytes).
    Removing stm32f4xx_hal_tim.o(i.HAL_TIM_PWM_ConfigChannel), (764 bytes).
    Removing stm32f4xx_hal_tim.o(i.HAL_TIM_PWM_DeInit), (236 bytes).
    Removing stm32f4xx_hal_tim.o(i.HAL_TIM_PWM_GetState), (8 bytes).
    Removing stm32f4xx_hal_tim.o(i.HAL_TIM_PWM_Init), (288 bytes).
    Removing stm32f4xx_hal_tim.o(i.HAL_TIM_PWM_MspDeInit), (2 bytes).
    Removing stm32f4xx_hal_tim.o(i.HAL_TIM_PWM_MspInit), (2 bytes).
    Removing stm32f4xx_hal_tim.o(i.HAL_TIM_PWM_PulseFinishedCallback), (2 bytes).
    Removing stm32f4xx_hal_tim.o(i.HAL_TIM_PWM_Start), (308 bytes).
    Removing stm32f4xx_hal_tim.o(i.HAL_TIM_PWM_Start_DMA), (544 bytes).
    Removing stm32f4xx_hal_tim.o(i.HAL_TIM_PWM_Start_IT), (384 bytes).
    Removing stm32f4xx_hal_tim.o(i.HAL_TIM_PWM_Stop), (364 bytes).
    Removing stm32f4xx_hal_tim.o(i.HAL_TIM_PWM_Stop_DMA), (440 bytes).
    Removing stm32f4xx_hal_tim.o(i.HAL_TIM_PWM_Stop_IT), (436 bytes).
    Removing stm32f4xx_hal_tim.o(i.HAL_TIM_PeriodElapsedCallback), (2 bytes).
    Removing stm32f4xx_hal_tim.o(i.HAL_TIM_ReadCapturedValue), (420 bytes).
    Removing stm32f4xx_hal_tim.o(i.HAL_TIM_SlaveConfigSynchronization), (324 bytes).
    Removing stm32f4xx_hal_tim.o(i.HAL_TIM_SlaveConfigSynchronization_IT), (324 bytes).
    Removing stm32f4xx_hal_tim.o(i.HAL_TIM_TriggerCallback), (2 bytes).
    Removing stm32f4xx_hal_tim.o(i.TIM_Base_SetConfig), (176 bytes).
    Removing stm32f4xx_hal_tim.o(i.TIM_CCxChannelCmd), (216 bytes).
    Removing stm32f4xx_hal_tim.o(i.TIM_DMACaptureCplt), (70 bytes).
    Removing stm32f4xx_hal_tim.o(i.TIM_DMADelayPulseCplt), (70 bytes).
    Removing stm32f4xx_hal_tim.o(i.TIM_DMAError), (20 bytes).
    Removing stm32f4xx_hal_tim.o(i.TIM_DMAPeriodElapsedCplt), (20 bytes).
    Removing stm32f4xx_hal_tim.o(i.TIM_DMATriggerCplt), (20 bytes).
    Removing stm32f4xx_hal_tim.o(i.TIM_ETR_SetConfig), (24 bytes).
    Removing stm32f4xx_hal_tim.o(i.TIM_ITRx_SetConfig), (20 bytes).
    Removing stm32f4xx_hal_tim.o(i.TIM_OC1_SetConfig), (100 bytes).
    Removing stm32f4xx_hal_tim.o(i.TIM_OC2_SetConfig), (256 bytes).
    Removing stm32f4xx_hal_tim.o(i.TIM_OC3_SetConfig), (256 bytes).
    Removing stm32f4xx_hal_tim.o(i.TIM_OC4_SetConfig), (184 bytes).
    Removing stm32f4xx_hal_tim.o(i.TIM_SlaveTimer_SetConfig), (1000 bytes).
    Removing stm32f4xx_hal_tim.o(i.TIM_TI1_ConfigInputStage), (42 bytes).
    Removing stm32f4xx_hal_tim.o(i.TIM_TI1_SetConfig), (132 bytes).
    Removing stm32f4xx_hal_tim.o(i.TIM_TI2_ConfigInputStage), (44 bytes).
    Removing stm32f4xx_hal_tim.o(i.TIM_TI2_SetConfig), (62 bytes).
    Removing stm32f4xx_hal_tim.o(i.TIM_TI3_SetConfig), (60 bytes).
    Removing stm32f4xx_hal_tim.o(i.TIM_TI4_SetConfig), (64 bytes).
    Removing stm32f4xx_hal_tim_ex.o(.rev16_text), (4 bytes).
    Removing stm32f4xx_hal_tim_ex.o(.revsh_text), (4 bytes).
    Removing stm32f4xx_hal_tim_ex.o(.rrx_text), (6 bytes).
    Removing stm32f4xx_hal_tim_ex.o(i.HAL_TIMEx_BreakCallback), (2 bytes).
    Removing stm32f4xx_hal_tim_ex.o(i.HAL_TIMEx_CommutationCallback), (2 bytes).
    Removing stm32f4xx_hal_tim_ex.o(i.HAL_TIMEx_ConfigBreakDeadTime), (396 bytes).
    Removing stm32f4xx_hal_tim_ex.o(i.HAL_TIMEx_ConfigCommutationEvent), (236 bytes).
    Removing stm32f4xx_hal_tim_ex.o(i.HAL_TIMEx_ConfigCommutationEvent_DMA), (268 bytes).
    Removing stm32f4xx_hal_tim_ex.o(i.HAL_TIMEx_ConfigCommutationEvent_IT), (248 bytes).
    Removing stm32f4xx_hal_tim_ex.o(i.HAL_TIMEx_HallSensor_DeInit), (236 bytes).
    Removing stm32f4xx_hal_tim_ex.o(i.HAL_TIMEx_HallSensor_GetState), (8 bytes).
    Removing stm32f4xx_hal_tim_ex.o(i.HAL_TIMEx_HallSensor_Init), (468 bytes).
    Removing stm32f4xx_hal_tim_ex.o(i.HAL_TIMEx_HallSensor_MspDeInit), (2 bytes).
    Removing stm32f4xx_hal_tim_ex.o(i.HAL_TIMEx_HallSensor_MspInit), (2 bytes).
    Removing stm32f4xx_hal_tim_ex.o(i.HAL_TIMEx_HallSensor_Start), (164 bytes).
    Removing stm32f4xx_hal_tim_ex.o(i.HAL_TIMEx_HallSensor_Start_DMA), (248 bytes).
    Removing stm32f4xx_hal_tim_ex.o(i.HAL_TIMEx_HallSensor_Start_IT), (176 bytes).
    Removing stm32f4xx_hal_tim_ex.o(i.HAL_TIMEx_HallSensor_Stop), (188 bytes).
    Removing stm32f4xx_hal_tim_ex.o(i.HAL_TIMEx_HallSensor_Stop_DMA), (200 bytes).
    Removing stm32f4xx_hal_tim_ex.o(i.HAL_TIMEx_HallSensor_Stop_IT), (200 bytes).
    Removing stm32f4xx_hal_tim_ex.o(i.HAL_TIMEx_MasterConfigSynchronization), (328 bytes).
    Removing stm32f4xx_hal_tim_ex.o(i.HAL_TIMEx_OCN_Start), (144 bytes).
    Removing stm32f4xx_hal_tim_ex.o(i.HAL_TIMEx_OCN_Start_DMA), (380 bytes).
    Removing stm32f4xx_hal_tim_ex.o(i.HAL_TIMEx_OCN_Start_IT), (232 bytes).
    Removing stm32f4xx_hal_tim_ex.o(i.HAL_TIMEx_OCN_Stop), (196 bytes).
    Removing stm32f4xx_hal_tim_ex.o(i.HAL_TIMEx_OCN_Stop_DMA), (276 bytes).
    Removing stm32f4xx_hal_tim_ex.o(i.HAL_TIMEx_OCN_Stop_IT), (296 bytes).
    Removing stm32f4xx_hal_tim_ex.o(i.HAL_TIMEx_OnePulseN_Start), (132 bytes).
    Removing stm32f4xx_hal_tim_ex.o(i.HAL_TIMEx_OnePulseN_Start_IT), (156 bytes).
    Removing stm32f4xx_hal_tim_ex.o(i.HAL_TIMEx_OnePulseN_Stop), (196 bytes).
    Removing stm32f4xx_hal_tim_ex.o(i.HAL_TIMEx_OnePulseN_Stop_IT), (220 bytes).
    Removing stm32f4xx_hal_tim_ex.o(i.HAL_TIMEx_PWMN_Start), (144 bytes).
    Removing stm32f4xx_hal_tim_ex.o(i.HAL_TIMEx_PWMN_Start_DMA), (380 bytes).
    Removing stm32f4xx_hal_tim_ex.o(i.HAL_TIMEx_PWMN_Start_IT), (232 bytes).
    Removing stm32f4xx_hal_tim_ex.o(i.HAL_TIMEx_PWMN_Stop), (196 bytes).
    Removing stm32f4xx_hal_tim_ex.o(i.HAL_TIMEx_PWMN_Stop_DMA), (276 bytes).
    Removing stm32f4xx_hal_tim_ex.o(i.HAL_TIMEx_PWMN_Stop_IT), (296 bytes).
    Removing stm32f4xx_hal_tim_ex.o(i.HAL_TIMEx_RemapConfig), (212 bytes).
    Removing stm32f4xx_hal_tim_ex.o(i.TIMEx_DMACommutationCplt), (20 bytes).
    Removing stm32f4xx_hal_tim_ex.o(i.TIM_CCxNChannelCmd), (184 bytes).
    Removing stm32f4xx_nucleo.o(.rev16_text), (4 bytes).
    Removing stm32f4xx_nucleo.o(.revsh_text), (4 bytes).
    Removing stm32f4xx_nucleo.o(.rrx_text), (6 bytes).
    Removing stm32f4xx_nucleo.o(i.ADCx_Init), (68 bytes).
    Removing stm32f4xx_nucleo.o(i.ADCx_MspInit), (100 bytes).
    Removing stm32f4xx_nucleo.o(i.BSP_GetVersion), (8 bytes).
    Removing stm32f4xx_nucleo.o(i.BSP_JOY_GetState), (140 bytes).
    Removing stm32f4xx_nucleo.o(i.BSP_JOY_Init), (44 bytes).
    Removing stm32f4xx_nucleo.o(i.BSP_LED_Init), (104 bytes).
    Removing stm32f4xx_nucleo.o(i.BSP_LED_Off), (32 bytes).
    Removing stm32f4xx_nucleo.o(i.BSP_LED_On), (32 bytes).
    Removing stm32f4xx_nucleo.o(i.BSP_LED_Toggle), (32 bytes).
    Removing stm32f4xx_nucleo.o(i.BSP_PB_GetState), (32 bytes).
    Removing stm32f4xx_nucleo.o(i.BSP_PB_Init), (156 bytes).
    Removing stm32f4xx_nucleo.o(i.LCD_Delay), (12 bytes).
    Removing stm32f4xx_nucleo.o(i.LCD_IO_Init), (128 bytes).
    Removing stm32f4xx_nucleo.o(i.LCD_IO_WriteData), (52 bytes).
    Removing stm32f4xx_nucleo.o(i.LCD_IO_WriteMultipleData), (144 bytes).
    Removing stm32f4xx_nucleo.o(i.LCD_IO_WriteReg), (52 bytes).
    Removing stm32f4xx_nucleo.o(i.SD_IO_Init), (100 bytes).
    Removing stm32f4xx_nucleo.o(i.SD_IO_ReadByte), (14 bytes).
    Removing stm32f4xx_nucleo.o(i.SD_IO_WaitResponse), (34 bytes).
    Removing stm32f4xx_nucleo.o(i.SD_IO_WriteByte), (12 bytes).
    Removing stm32f4xx_nucleo.o(i.SD_IO_WriteCmd), (100 bytes).
    Removing stm32f4xx_nucleo.o(i.SD_IO_WriteDummy), (24 bytes).
    Removing stm32f4xx_nucleo.o(i.SPIx_Error), (20 bytes).
    Removing stm32f4xx_nucleo.o(i.SPIx_Init), (88 bytes).
    Removing stm32f4xx_nucleo.o(i.SPIx_MspInit), (164 bytes).
    Removing stm32f4xx_nucleo.o(i.SPIx_Read), (52 bytes).
    Removing stm32f4xx_nucleo.o(i.SPIx_Write), (36 bytes).
    Removing stm32f4xx_nucleo.o(.bss), (172 bytes).
    Removing stm32f4xx_nucleo.o(.constdata), (5 bytes).
    Removing stm32f4xx_nucleo.o(.data), (12 bytes).
    Removing xnucleoihm02a1.o(.rev16_text), (4 bytes).
    Removing xnucleoihm02a1.o(.revsh_text), (4 bytes).
    Removing xnucleoihm02a1.o(.rrx_text), (6 bytes).
    Removing xnucleoihm02a1.o(i.BSP_EmergencyStop), (20 bytes).
    Removing xnucleoihm02a1.o(i.BSP_L6470_BusySynchEventManager), (4 bytes).
    Removing xnucleoihm02a1.o(i.BSP_L6470_FlagEventManager), (4 bytes).
    Removing xnucleoihm02a1.o(i.BSP_L6470_PerformPreparedApplicationCommand), (22 bytes).
    Removing xnucleoihm02a1_interface.o(.rev16_text), (4 bytes).
    Removing xnucleoihm02a1_interface.o(.revsh_text), (4 bytes).
    Removing xnucleoihm02a1_interface.o(.rrx_text), (6 bytes).
    Removing xnucleoihm02a1_interface.o(i.MX_ADC1_Init), (112 bytes).
    Removing xnucleoihm02a1_interface.o(i.MX_SPI2_Init), (148 bytes).
    Removing xnucleoihm02a1_interface.o(i.MX_USART2_Init), (48 bytes).
    Removing xnucleoihm02a1_interface.o(i.User_LED_Blinking), (50 bytes).
    Removing stm32f4xx_hal_msp.o(.rev16_text), (4 bytes).
    Removing stm32f4xx_hal_msp.o(.revsh_text), (4 bytes).
    Removing stm32f4xx_hal_msp.o(.rrx_text), (6 bytes).
    Removing stm32f4xx_hal_msp.o(i.HAL_ADC_MspDeInit), (48 bytes).
    Removing stm32f4xx_hal_msp.o(i.HAL_ADC_MspInit), (112 bytes).
    Removing stm32f4xx_hal_msp.o(i.HAL_SPI_MspDeInit), (100 bytes).
    Removing stm32f4xx_hal_msp.o(i.HAL_UART_MspDeInit), (52 bytes).
    Removing stm32f4xx_hal_msp.o(i.HAL_UART_MspInit), (136 bytes).
    Removing stm32f4xx_it.o(.rev16_text), (4 bytes).
    Removing stm32f4xx_it.o(.revsh_text), (4 bytes).
    Removing stm32f4xx_it.o(.rrx_text), (6 bytes).
    Removing example_usart.o(.rev16_text), (4 bytes).
    Removing example_usart.o(.revsh_text), (4 bytes).
    Removing example_usart.o(.rrx_text), (6 bytes).
    Removing example_usart.o(i.CompareTwoTextString), (36 bytes).
    Removing example_usart.o(i.Fill_L6470_DaisyChainMnemonic), (244 bytes).
    Removing example_usart.o(i.Motor_Param_Reg_Init), (60 bytes).
    Removing example_usart.o(i.USART_CheckAppCmd), (100 bytes).
    Removing example_usart.o(i.USART_CheckTextCommandBundle), (1596 bytes).
    Removing example_usart.o(i.USART_DecodeTextString), (196 bytes).
    Removing example_usart.o(i.USART_PrintAllRegisterValues), (60 bytes).
    Removing example_usart.o(i.USART_PrintRegisterValues), (244 bytes).
    Removing example_usart.o(i.USART_SplitTextString), (394 bytes).
    Removing example_usart.o(i.USART_TxWelcomeMessage), (292 bytes).
    Removing example_usart.o(i.num2hex), (116 bytes).
    Removing example_usart.o(i.num2str), (96 bytes).
    Removing example_usart.o(i.str2num), (78 bytes).
    Removing example_usart.o(.data), (8 bytes).
    Removing example.o(.rev16_text), (4 bytes).
    Removing example.o(.revsh_text), (4 bytes).
    Removing example.o(.rrx_text), (6 bytes).
    Removing example.o(.data), (8 bytes).
    Removing main.o(.rev16_text), (4 bytes).
    Removing main.o(.revsh_text), (4 bytes).
    Removing main.o(.rrx_text), (6 bytes).
    Removing main.o(i.Error_Handler), (10 bytes).
    Removing main.o(i.Read_ADC), (32 bytes).
    Removing main.o(.data), (4 bytes).
    Removing system_stm32f4xx.o(.rev16_text), (4 bytes).
    Removing system_stm32f4xx.o(.revsh_text), (4 bytes).
    Removing system_stm32f4xx.o(.rrx_text), (6 bytes).
    Removing system_stm32f4xx.o(i.SystemCoreClockUpdate), (192 bytes).
    Removing system_stm32f4xx.o(.constdata), (16 bytes).
    Removing startup_stm32f401xe.o(HEAP), (512 bytes).
    Removing dfltui.o(.text), (26 bytes).
    Removing dneg.o(.text), (6 bytes).

540 unused section(s) (total 70275 bytes) removed from the image.

==============================================================================

Image Symbol Table

    Local Symbols

    Symbol Name                              Value     Ov Type        Size  Object(Section)

    ../clib/../cmprslib/zerorunl2.c          0x00000000   Number         0  __dczerorl2.o ABSOLUTE
    ../clib/microlib/errno.c                 0x00000000   Number         0  errno.o ABSOLUTE
    ../clib/microlib/init/entry.s            0x00000000   Number         0  entry2.o ABSOLUTE
    ../clib/microlib/init/entry.s            0x00000000   Number         0  entry7a.o ABSOLUTE
    ../clib/microlib/init/entry.s            0x00000000   Number         0  entry.o ABSOLUTE
    ../clib/microlib/init/entry.s            0x00000000   Number         0  entry5.o ABSOLUTE
    ../clib/microlib/init/entry.s            0x00000000   Number         0  entry10b.o ABSOLUTE
    ../clib/microlib/init/entry.s            0x00000000   Number         0  entry7b.o ABSOLUTE
    ../clib/microlib/init/entry.s            0x00000000   Number         0  entry8a.o ABSOLUTE
    ../clib/microlib/init/entry.s            0x00000000   Number         0  entry8b.o ABSOLUTE
    ../clib/microlib/init/entry.s            0x00000000   Number         0  entry9a.o ABSOLUTE
    ../clib/microlib/init/entry.s            0x00000000   Number         0  entry9b.o ABSOLUTE
    ../clib/microlib/init/entry.s            0x00000000   Number         0  entry10a.o ABSOLUTE
    ../clib/microlib/init/entry.s            0x00000000   Number         0  entry11a.o ABSOLUTE
    ../clib/microlib/init/entry.s            0x00000000   Number         0  entry11b.o ABSOLUTE
    ../clib/microlib/longlong.c              0x00000000   Number         0  llshl.o ABSOLUTE
    ../clib/microlib/longlong.c              0x00000000   Number         0  llushr.o ABSOLUTE
    ../clib/microlib/longlong.c              0x00000000   Number         0  llsshr.o ABSOLUTE
    ../clib/microlib/stubs.s                 0x00000000   Number         0  iusefp.o ABSOLUTE
    ../fplib/microlib/d2f.c                  0x00000000   Number         0  d2f.o ABSOLUTE
    ../fplib/microlib/f2d.c                  0x00000000   Number         0  f2d.o ABSOLUTE
    ../fplib/microlib/fpadd.c                0x00000000   Number         0  dadd.o ABSOLUTE
    ../fplib/microlib/fpdiv.c                0x00000000   Number         0  ddiv.o ABSOLUTE
    ../fplib/microlib/fpepilogue.c           0x00000000   Number         0  depilogue.o ABSOLUTE
    ../fplib/microlib/fpepilogue.c           0x00000000   Number         0  fepilogue.o ABSOLUTE
    ../fplib/microlib/fpfix.c                0x00000000   Number         0  dfixi.o ABSOLUTE
    ../fplib/microlib/fpfix.c                0x00000000   Number         0  dfixui.o ABSOLUTE
    ../fplib/microlib/fpflt.c                0x00000000   Number         0  dfltui.o ABSOLUTE
    ../fplib/microlib/fpflt.c                0x00000000   Number         0  dflti.o ABSOLUTE
    ../fplib/microlib/fpmul.c                0x00000000   Number         0  dmul.o ABSOLUTE
    ../fplib/microlib/fpneg.c                0x00000000   Number         0  dneg.o ABSOLUTE
    ../fplib/microlib/fpscalb.c              0x00000000   Number         0  dscalb.o ABSOLUTE
    ../fplib/microlib/fpsqrt.c               0x00000000   Number         0  dsqrt.o ABSOLUTE
    ../mathlib/acos.c                        0x00000000   Number         0  acos.o ABSOLUTE
    ../mathlib/acos.c                        0x00000000   Number         0  acos_x.o ABSOLUTE
    ../mathlib/asin.c                        0x00000000   Number         0  asin.o ABSOLUTE
    ../mathlib/asin.c                        0x00000000   Number         0  asin_x.o ABSOLUTE
    ../mathlib/atan.c                        0x00000000   Number         0  atan_x.o ABSOLUTE
    ../mathlib/atan.c                        0x00000000   Number         0  atan.o ABSOLUTE
    ../mathlib/dunder.c                      0x00000000   Number         0  dunder.o ABSOLUTE
    ../mathlib/fabs.c                        0x00000000   Number         0  fabs.o ABSOLUTE
    ../mathlib/fpclassify.c                  0x00000000   Number         0  fpclassify.o ABSOLUTE
    ../mathlib/poly.c                        0x00000000   Number         0  poly.o ABSOLUTE
    ../mathlib/pow.c                         0x00000000   Number         0  pow_x.o ABSOLUTE
    ../mathlib/pow.c                         0x00000000   Number         0  pow.o ABSOLUTE
    ../mathlib/qnan.c                        0x00000000   Number         0  qnan.o ABSOLUTE
    ../mathlib/sqrt.c                        0x00000000   Number         0  sqrt_x.o ABSOLUTE
    ../mathlib/sqrt.c                        0x00000000   Number         0  sqrt.o ABSOLUTE
    ..\..\Drivers\BSP\Components\L6470\L6470.c 0x00000000   Number         0  l6470.o ABSOLUTE
    ..\..\Drivers\BSP\STM32F4xx-Nucleo\stm32f4xx_nucleo.c 0x00000000   Number         0  stm32f4xx_nucleo.o ABSOLUTE
    ..\..\Drivers\BSP\X-NUCLEO-IHM02A1\NUCLEO-F401RE\xnucleoihm02a1_interface.c 0x00000000   Number         0  xnucleoihm02a1_interface.o ABSOLUTE
    ..\..\Drivers\BSP\X-NUCLEO-IHM02A1\xnucleoihm02a1.c 0x00000000   Number         0  xnucleoihm02a1.o ABSOLUTE
    ..\..\Drivers\CMSIS\Device\ST\STM32F4xx\Source\Templates\system_stm32f4xx.c 0x00000000   Number         0  system_stm32f4xx.o ABSOLUTE
    ..\..\Drivers\STM32F4xx_HAL_Driver\Src\stm32f4xx_hal.c 0x00000000   Number         0  stm32f4xx_hal.o ABSOLUTE
    ..\..\Drivers\STM32F4xx_HAL_Driver\Src\stm32f4xx_hal_adc.c 0x00000000   Number         0  stm32f4xx_hal_adc.o ABSOLUTE
    ..\..\Drivers\STM32F4xx_HAL_Driver\Src\stm32f4xx_hal_adc_ex.c 0x00000000   Number         0  stm32f4xx_hal_adc_ex.o ABSOLUTE
    ..\..\Drivers\STM32F4xx_HAL_Driver\Src\stm32f4xx_hal_cortex.c 0x00000000   Number         0  stm32f4xx_hal_cortex.o ABSOLUTE
    ..\..\Drivers\STM32F4xx_HAL_Driver\Src\stm32f4xx_hal_dma.c 0x00000000   Number         0  stm32f4xx_hal_dma.o ABSOLUTE
    ..\..\Drivers\STM32F4xx_HAL_Driver\Src\stm32f4xx_hal_dma_ex.c 0x00000000   Number         0  stm32f4xx_hal_dma_ex.o ABSOLUTE
    ..\..\Drivers\STM32F4xx_HAL_Driver\Src\stm32f4xx_hal_flash.c 0x00000000   Number         0  stm32f4xx_hal_flash.o ABSOLUTE
    ..\..\Drivers\STM32F4xx_HAL_Driver\Src\stm32f4xx_hal_flash_ex.c 0x00000000   Number         0  stm32f4xx_hal_flash_ex.o ABSOLUTE
    ..\..\Drivers\STM32F4xx_HAL_Driver\Src\stm32f4xx_hal_flash_ramfunc.c 0x00000000   Number         0  stm32f4xx_hal_flash_ramfunc.o ABSOLUTE
    ..\..\Drivers\STM32F4xx_HAL_Driver\Src\stm32f4xx_hal_gpio.c 0x00000000   Number         0  stm32f4xx_hal_gpio.o ABSOLUTE
    ..\..\Drivers\STM32F4xx_HAL_Driver\Src\stm32f4xx_hal_pwr.c 0x00000000   Number         0  stm32f4xx_hal_pwr.o ABSOLUTE
    ..\..\Drivers\STM32F4xx_HAL_Driver\Src\stm32f4xx_hal_pwr_ex.c 0x00000000   Number         0  stm32f4xx_hal_pwr_ex.o ABSOLUTE
    ..\..\Drivers\STM32F4xx_HAL_Driver\Src\stm32f4xx_hal_rcc.c 0x00000000   Number         0  stm32f4xx_hal_rcc.o ABSOLUTE
    ..\..\Drivers\STM32F4xx_HAL_Driver\Src\stm32f4xx_hal_rcc_ex.c 0x00000000   Number         0  stm32f4xx_hal_rcc_ex.o ABSOLUTE
    ..\..\Drivers\STM32F4xx_HAL_Driver\Src\stm32f4xx_hal_spi.c 0x00000000   Number         0  stm32f4xx_hal_spi.o ABSOLUTE
    ..\..\Drivers\STM32F4xx_HAL_Driver\Src\stm32f4xx_hal_tim.c 0x00000000   Number         0  stm32f4xx_hal_tim.o ABSOLUTE
    ..\..\Drivers\STM32F4xx_HAL_Driver\Src\stm32f4xx_hal_tim_ex.c 0x00000000   Number         0  stm32f4xx_hal_tim_ex.o ABSOLUTE
    ..\..\Drivers\STM32F4xx_HAL_Driver\Src\stm32f4xx_hal_uart.c 0x00000000   Number         0  stm32f4xx_hal_uart.o ABSOLUTE
    ..\Src\NUCLEO-F401RE\startup_stm32f401xe.s 0x00000000   Number         0  startup_stm32f401xe.o ABSOLUTE
    ..\Src\NUCLEO-F401RE\stm32f4xx_hal_msp.c 0x00000000   Number         0  stm32f4xx_hal_msp.o ABSOLUTE
    ..\Src\NUCLEO-F401RE\stm32f4xx_it.c      0x00000000   Number         0  stm32f4xx_it.o ABSOLUTE
    ..\Src\example.c                         0x00000000   Number         0  example.o ABSOLUTE
    ..\Src\example_usart.c                   0x00000000   Number         0  example_usart.o ABSOLUTE
    ..\Src\main.c                            0x00000000   Number         0  main.o ABSOLUTE
    ..\Src\params.c                          0x00000000   Number         0  params.o ABSOLUTE
    ..\\..\\Drivers\\BSP\\Components\\L6470\\L6470.c 0x00000000   Number         0  l6470.o ABSOLUTE
    ..\\..\\Drivers\\BSP\\STM32F4xx-Nucleo\\stm32f4xx_nucleo.c 0x00000000   Number         0  stm32f4xx_nucleo.o ABSOLUTE
    ..\\..\\Drivers\\BSP\\X-NUCLEO-IHM02A1\\NUCLEO-F401RE\\xnucleoihm02a1_interface.c 0x00000000   Number         0  xnucleoihm02a1_interface.o ABSOLUTE
    ..\\..\\Drivers\\BSP\\X-NUCLEO-IHM02A1\\xnucleoihm02a1.c 0x00000000   Number         0  xnucleoihm02a1.o ABSOLUTE
    ..\\..\\Drivers\\CMSIS\\Device\\ST\\STM32F4xx\\Source\\Templates\\system_stm32f4xx.c 0x00000000   Number         0  system_stm32f4xx.o ABSOLUTE
    ..\\..\\Drivers\\STM32F4xx_HAL_Driver\\Src\\stm32f4xx_hal.c 0x00000000   Number         0  stm32f4xx_hal.o ABSOLUTE
    ..\\..\\Drivers\\STM32F4xx_HAL_Driver\\Src\\stm32f4xx_hal_adc.c 0x00000000   Number         0  stm32f4xx_hal_adc.o ABSOLUTE
    ..\\..\\Drivers\\STM32F4xx_HAL_Driver\\Src\\stm32f4xx_hal_adc_ex.c 0x00000000   Number         0  stm32f4xx_hal_adc_ex.o ABSOLUTE
    ..\\..\\Drivers\\STM32F4xx_HAL_Driver\\Src\\stm32f4xx_hal_cortex.c 0x00000000   Number         0  stm32f4xx_hal_cortex.o ABSOLUTE
    ..\\..\\Drivers\\STM32F4xx_HAL_Driver\\Src\\stm32f4xx_hal_dma.c 0x00000000   Number         0  stm32f4xx_hal_dma.o ABSOLUTE
    ..\\..\\Drivers\\STM32F4xx_HAL_Driver\\Src\\stm32f4xx_hal_dma_ex.c 0x00000000   Number         0  stm32f4xx_hal_dma_ex.o ABSOLUTE
    ..\\..\\Drivers\\STM32F4xx_HAL_Driver\\Src\\stm32f4xx_hal_flash.c 0x00000000   Number         0  stm32f4xx_hal_flash.o ABSOLUTE
    ..\\..\\Drivers\\STM32F4xx_HAL_Driver\\Src\\stm32f4xx_hal_flash_ex.c 0x00000000   Number         0  stm32f4xx_hal_flash_ex.o ABSOLUTE
    ..\\..\\Drivers\\STM32F4xx_HAL_Driver\\Src\\stm32f4xx_hal_flash_ramfunc.c 0x00000000   Number         0  stm32f4xx_hal_flash_ramfunc.o ABSOLUTE
    ..\\..\\Drivers\\STM32F4xx_HAL_Driver\\Src\\stm32f4xx_hal_gpio.c 0x00000000   Number         0  stm32f4xx_hal_gpio.o ABSOLUTE
    ..\\..\\Drivers\\STM32F4xx_HAL_Driver\\Src\\stm32f4xx_hal_pwr.c 0x00000000   Number         0  stm32f4xx_hal_pwr.o ABSOLUTE
    ..\\..\\Drivers\\STM32F4xx_HAL_Driver\\Src\\stm32f4xx_hal_pwr_ex.c 0x00000000   Number         0  stm32f4xx_hal_pwr_ex.o ABSOLUTE
    ..\\..\\Drivers\\STM32F4xx_HAL_Driver\\Src\\stm32f4xx_hal_rcc.c 0x00000000   Number         0  stm32f4xx_hal_rcc.o ABSOLUTE
    ..\\..\\Drivers\\STM32F4xx_HAL_Driver\\Src\\stm32f4xx_hal_rcc_ex.c 0x00000000   Number         0  stm32f4xx_hal_rcc_ex.o ABSOLUTE
    ..\\..\\Drivers\\STM32F4xx_HAL_Driver\\Src\\stm32f4xx_hal_spi.c 0x00000000   Number         0  stm32f4xx_hal_spi.o ABSOLUTE
    ..\\..\\Drivers\\STM32F4xx_HAL_Driver\\Src\\stm32f4xx_hal_tim.c 0x00000000   Number         0  stm32f4xx_hal_tim.o ABSOLUTE
    ..\\..\\Drivers\\STM32F4xx_HAL_Driver\\Src\\stm32f4xx_hal_tim_ex.c 0x00000000   Number         0  stm32f4xx_hal_tim_ex.o ABSOLUTE
    ..\\..\\Drivers\\STM32F4xx_HAL_Driver\\Src\\stm32f4xx_hal_uart.c 0x00000000   Number         0  stm32f4xx_hal_uart.o ABSOLUTE
    ..\\Src\\NUCLEO-F401RE\\stm32f4xx_hal_msp.c 0x00000000   Number         0  stm32f4xx_hal_msp.o ABSOLUTE
    ..\\Src\\NUCLEO-F401RE\\stm32f4xx_it.c   0x00000000   Number         0  stm32f4xx_it.o ABSOLUTE
    ..\\Src\\example.c                       0x00000000   Number         0  example.o ABSOLUTE
    ..\\Src\\example_usart.c                 0x00000000   Number         0  example_usart.o ABSOLUTE
    ..\\Src\\main.c                          0x00000000   Number         0  main.o ABSOLUTE
    cdcmple.s                                0x00000000   Number         0  cdcmple.o ABSOLUTE
    cdrcmple.s                               0x00000000   Number         0  cdrcmple.o ABSOLUTE
    dc.s                                     0x00000000   Number         0  dc.o ABSOLUTE
    handlers.s                               0x00000000   Number         0  handlers.o ABSOLUTE
    init.s                                   0x00000000   Number         0  init.o ABSOLUTE
    RESET                                    0x08000000   Section      404  startup_stm32f401xe.o(RESET)
    .ARM.Collect$$$$00000000                 0x08000194   Section        0  entry.o(.ARM.Collect$$$$00000000)
    .ARM.Collect$$$$00000001                 0x08000194   Section        4  entry2.o(.ARM.Collect$$$$00000001)
    .ARM.Collect$$$$00000004                 0x08000198   Section        4  entry5.o(.ARM.Collect$$$$00000004)
    .ARM.Collect$$$$00000008                 0x0800019c   Section        0  entry7b.o(.ARM.Collect$$$$00000008)
    .ARM.Collect$$$$0000000A                 0x0800019c   Section        0  entry8b.o(.ARM.Collect$$$$0000000A)
    .ARM.Collect$$$$0000000B                 0x0800019c   Section        8  entry9a.o(.ARM.Collect$$$$0000000B)
    .ARM.Collect$$$$0000000D                 0x080001a4   Section        0  entry10a.o(.ARM.Collect$$$$0000000D)
    .ARM.Collect$$$$0000000F                 0x080001a4   Section        0  entry11a.o(.ARM.Collect$$$$0000000F)
    .ARM.Collect$$$$00002712                 0x080001a4   Section        4  entry2.o(.ARM.Collect$$$$00002712)
    __lit__00000000                          0x080001a4   Data           4  entry2.o(.ARM.Collect$$$$00002712)
    .text                                    0x080001a8   Section       36  startup_stm32f401xe.o(.text)
    $v0                                      0x080001a8   Number         0  startup_stm32f401xe.o(.text)
    .text                                    0x080001cc   Section        0  dadd.o(.text)
    .text                                    0x0800031a   Section        0  dmul.o(.text)
    .text                                    0x080003fe   Section        0  ddiv.o(.text)
    .text                                    0x080004dc   Section        0  dfixi.o(.text)
    .text                                    0x0800051a   Section        0  dfixui.o(.text)
    .text                                    0x0800054c   Section        0  f2d.o(.text)
    .text                                    0x08000574   Section       48  cdcmple.o(.text)
    .text                                    0x080005a4   Section        0  d2f.o(.text)
    .text                                    0x080005dc   Section        0  llshl.o(.text)
    .text                                    0x080005fa   Section        0  llushr.o(.text)
    .text                                    0x0800061a   Section        0  llsshr.o(.text)
    .text                                    0x0800063e   Section        0  iusefp.o(.text)
    .text                                    0x0800063e   Section        0  fepilogue.o(.text)
    .text                                    0x080006ac   Section        0  depilogue.o(.text)
    .text                                    0x08000766   Section        0  dscalb.o(.text)
    .text                                    0x08000794   Section        0  dsqrt.o(.text)
    .text                                    0x08000836   Section        0  dflti.o(.text)
    .text                                    0x08000858   Section       48  cdrcmple.o(.text)
    .text                                    0x08000888   Section       36  init.o(.text)
    .text                                    0x080008ac   Section        0  __dczerorl2.o(.text)
    i.BSP_0_Config                           0x08000904   Section        0  xnucleoihm02a1.o(i.BSP_0_Config)
    i.BSP_1_Config                           0x08000918   Section        0  xnucleoihm02a1.o(i.BSP_1_Config)
    i.BSP_2_Config                           0x0800092c   Section        0  xnucleoihm02a1.o(i.BSP_2_Config)
    i.BSP_3_Config                           0x08000940   Section        0  xnucleoihm02a1.o(i.BSP_3_Config)
    i.BSP_Config                             0x08000954   Section        0  xnucleoihm02a1.o(i.BSP_Config)
    i.BSP_GetExpansionBoardHandle            0x08000974   Section        0  xnucleoihm02a1.o(i.BSP_GetExpansionBoardHandle)
    i.BSP_IRQ                                0x080009c0   Section        0  xnucleoihm02a1.o(i.BSP_IRQ)
    i.BSP_Init                               0x080009e4   Section        0  xnucleoihm02a1.o(i.BSP_Init)
    i.BSP_L6470_0_0_Config                   0x08000a04   Section        0  xnucleoihm02a1.o(i.BSP_L6470_0_0_Config)
    i.BSP_L6470_0_1_Config                   0x08000a18   Section        0  xnucleoihm02a1.o(i.BSP_L6470_0_1_Config)
    i.BSP_L6470_1_0_Config                   0x08000a2c   Section        0  xnucleoihm02a1.o(i.BSP_L6470_1_0_Config)
    i.BSP_L6470_1_1_Config                   0x08000a40   Section        0  xnucleoihm02a1.o(i.BSP_L6470_1_1_Config)
    i.BSP_L6470_2_0_Config                   0x08000a54   Section        0  xnucleoihm02a1.o(i.BSP_L6470_2_0_Config)
    i.BSP_L6470_2_1_Config                   0x08000a68   Section        0  xnucleoihm02a1.o(i.BSP_L6470_2_1_Config)
    i.BSP_L6470_3_0_Config                   0x08000a7c   Section        0  xnucleoihm02a1.o(i.BSP_L6470_3_0_Config)
    i.BSP_L6470_3_1_Config                   0x08000a90   Section        0  xnucleoihm02a1.o(i.BSP_L6470_3_1_Config)
    i.BSP_L6470_CheckStatusRegisterFlag      0x08000aa4   Section        0  xnucleoihm02a1.o(i.BSP_L6470_CheckStatusRegisterFlag)
    i.BSP_L6470_GetParam                     0x08000ac2   Section        0  xnucleoihm02a1.o(i.BSP_L6470_GetParam)
    i.BSP_L6470_GetStatus                    0x08000ae0   Section        0  xnucleoihm02a1.o(i.BSP_L6470_GetStatus)
    i.BSP_L6470_GoHome                       0x08000afa   Section        0  xnucleoihm02a1.o(i.BSP_L6470_GoHome)
    i.BSP_L6470_GoMark                       0x08000b10   Section        0  xnucleoihm02a1.o(i.BSP_L6470_GoMark)
    i.BSP_L6470_GoTo                         0x08000b26   Section        0  xnucleoihm02a1.o(i.BSP_L6470_GoTo)
    i.BSP_L6470_GoToDir                      0x08000b40   Section        0  xnucleoihm02a1.o(i.BSP_L6470_GoToDir)
    i.BSP_L6470_GoUntil                      0x08000b62   Section        0  xnucleoihm02a1.o(i.BSP_L6470_GoUntil)
    i.BSP_L6470_HardHiZ                      0x08000b8a   Section        0  xnucleoihm02a1.o(i.BSP_L6470_HardHiZ)
    i.BSP_L6470_HardStop                     0x08000ba0   Section        0  xnucleoihm02a1.o(i.BSP_L6470_HardStop)
    i.BSP_L6470_Init                         0x08000bb8   Section        0  xnucleoihm02a1.o(i.BSP_L6470_Init)
    i.BSP_L6470_Move                         0x08000c38   Section        0  xnucleoihm02a1.o(i.BSP_L6470_Move)
    i.BSP_L6470_ReleaseSW                    0x08000c5a   Section        0  xnucleoihm02a1.o(i.BSP_L6470_ReleaseSW)
    i.BSP_L6470_ResetDevice                  0x08000c7c   Section        0  xnucleoihm02a1.o(i.BSP_L6470_ResetDevice)
    i.BSP_L6470_ResetPos                     0x08000c92   Section        0  xnucleoihm02a1.o(i.BSP_L6470_ResetPos)
    i.BSP_L6470_Run                          0x08000ca8   Section        0  xnucleoihm02a1.o(i.BSP_L6470_Run)
    i.BSP_L6470_SetParam                     0x08000cca   Section        0  xnucleoihm02a1.o(i.BSP_L6470_SetParam)
    i.BSP_L6470_SoftHiZ                      0x08000cec   Section        0  xnucleoihm02a1.o(i.BSP_L6470_SoftHiZ)
    i.BSP_L6470_SoftStop                     0x08000d02   Section        0  xnucleoihm02a1.o(i.BSP_L6470_SoftStop)
    i.BSP_L6470_StepClock                    0x08000d18   Section        0  xnucleoihm02a1.o(i.BSP_L6470_StepClock)
    i.BSP_NUCLEO_GPIO_Init                   0x08000d34   Section        0  xnucleoihm02a1.o(i.BSP_NUCLEO_GPIO_Init)
    i.BSP_Select                             0x08000e34   Section        0  xnucleoihm02a1.o(i.BSP_Select)
    i.EXPBRD_ID                              0x08000e78   Section        0  xnucleoihm02a1.o(i.EXPBRD_ID)
    i.EXTI0_IRQHandler                       0x08000e86   Section        0  stm32f4xx_it.o(i.EXTI0_IRQHandler)
    i.EXTI15_10_IRQHandler                   0x08000e90   Section        0  stm32f4xx_it.o(i.EXTI15_10_IRQHandler)
    i.EXTI1_IRQHandler                       0x08000e9c   Section        0  stm32f4xx_it.o(i.EXTI1_IRQHandler)
    i.EXTI4_IRQHandler                       0x08000ea8   Section        0  stm32f4xx_it.o(i.EXTI4_IRQHandler)
    i.GetMotorParameterInitData              0x08000ecc   Section        0  params.o(i.GetMotorParameterInitData)
    i.HAL_Delay                              0x08000ed4   Section        0  stm32f4xx_hal.o(i.HAL_Delay)
    i.HAL_GPIO_EXTI_Callback                 0x08000eee   Section        0  stm32f4xx_hal_gpio.o(i.HAL_GPIO_EXTI_Callback)
    i.HAL_GPIO_EXTI_IRQHandler               0x08000ef0   Section        0  stm32f4xx_hal_gpio.o(i.HAL_GPIO_EXTI_IRQHandler)
    i.HAL_GPIO_Init                          0x08000f0c   Section        0  stm32f4xx_hal_gpio.o(i.HAL_GPIO_Init)
    i.HAL_GPIO_ReadPin                       0x080012c0   Section        0  stm32f4xx_hal_gpio.o(i.HAL_GPIO_ReadPin)
    i.HAL_GPIO_WritePin                      0x08001324   Section        0  stm32f4xx_hal_gpio.o(i.HAL_GPIO_WritePin)
    i.HAL_GetTick                            0x08001398   Section        0  stm32f4xx_hal.o(i.HAL_GetTick)
    i.HAL_IncTick                            0x080013a4   Section        0  stm32f4xx_hal.o(i.HAL_IncTick)
    i.HAL_Init                               0x080013b4   Section        0  stm32f4xx_hal.o(i.HAL_Init)
    i.HAL_InitTick                           0x080013f0   Section        0  stm32f4xx_hal.o(i.HAL_InitTick)
    i.HAL_MspInit                            0x08001414   Section        0  stm32f4xx_hal_msp.o(i.HAL_MspInit)
    i.HAL_NVIC_DisableIRQ                    0x08001428   Section        0  stm32f4xx_hal_cortex.o(i.HAL_NVIC_DisableIRQ)
    i.HAL_NVIC_EnableIRQ                     0x08001494   Section        0  stm32f4xx_hal_cortex.o(i.HAL_NVIC_EnableIRQ)
    i.HAL_NVIC_SetPriority                   0x08001500   Section        0  stm32f4xx_hal_cortex.o(i.HAL_NVIC_SetPriority)
    i.HAL_NVIC_SetPriorityGrouping           0x080015d8   Section        0  stm32f4xx_hal_cortex.o(i.HAL_NVIC_SetPriorityGrouping)
    i.HAL_RCC_ClockConfig                    0x08001664   Section        0  stm32f4xx_hal_rcc.o(i.HAL_RCC_ClockConfig)
    i.HAL_RCC_GetHCLKFreq                    0x08001ab8   Section        0  stm32f4xx_hal_rcc.o(i.HAL_RCC_GetHCLKFreq)
    i.HAL_RCC_GetPCLK2Freq                   0x08001af0   Section        0  stm32f4xx_hal_rcc.o(i.HAL_RCC_GetPCLK2Freq)
    i.HAL_RCC_GetSysClockFreq                0x08001b1c   Section        0  stm32f4xx_hal_rcc.o(i.HAL_RCC_GetSysClockFreq)
    i.HAL_RCC_OscConfig                      0x08001bd0   Section        0  stm32f4xx_hal_rcc.o(i.HAL_RCC_OscConfig)
    i.HAL_SPI_Init                           0x08002144   Section        0  stm32f4xx_hal_spi.o(i.HAL_SPI_Init)
    i.HAL_SPI_MspInit                        0x08002324   Section        0  stm32f4xx_hal_msp.o(i.HAL_SPI_MspInit)
    i.HAL_SPI_TransmitReceive                0x0800243c   Section        0  stm32f4xx_hal_spi.o(i.HAL_SPI_TransmitReceive)
    i.HAL_SYSTICK_Callback                   0x080027dc   Section        0  stm32f4xx_hal_cortex.o(i.HAL_SYSTICK_Callback)
    i.HAL_SYSTICK_Config                     0x080027de   Section        0  stm32f4xx_hal_cortex.o(i.HAL_SYSTICK_Config)
    i.HAL_SYSTICK_IRQHandler                 0x08002812   Section        0  stm32f4xx_hal_cortex.o(i.HAL_SYSTICK_IRQHandler)
    i.HAL_UART_ErrorCallback                 0x0800281a   Section        0  stm32f4xx_hal_uart.o(i.HAL_UART_ErrorCallback)
    i.HAL_UART_IRQHandler                    0x0800281c   Section        0  stm32f4xx_hal_uart.o(i.HAL_UART_IRQHandler)
    i.HAL_UART_RxCpltCallback                0x0800293c   Section        0  stm32f4xx_hal_uart.o(i.HAL_UART_RxCpltCallback)
    i.HAL_UART_Transmit                      0x0800293e   Section        0  stm32f4xx_hal_uart.o(i.HAL_UART_Transmit)
    i.HAL_UART_TxCpltCallback                0x08002a2e   Section        0  stm32f4xx_hal_uart.o(i.HAL_UART_TxCpltCallback)
    i.L6470_CheckStatusRegisterFlag          0x08002a30   Section        0  l6470.o(i.L6470_CheckStatusRegisterFlag)
    i.L6470_Config                           0x08002b1c   Section        0  l6470.o(i.L6470_Config)
    i.L6470_DaisyChainCommand                0x08002d6c   Section        0  l6470.o(i.L6470_DaisyChainCommand)
    i.L6470_ExtractReturnedData              0x08002de0   Section        0  l6470.o(i.L6470_ExtractReturnedData)
    i.L6470_FillAppCmdPkg                    0x08002e04   Section        0  l6470.o(i.L6470_FillAppCmdPkg)
    i.L6470_GetParam                         0x08002e24   Section        0  l6470.o(i.L6470_GetParam)
    i.L6470_GetStatus                        0x08002e7c   Section        0  l6470.o(i.L6470_GetStatus)
    i.L6470_GoHome                           0x08002ec0   Section        0  l6470.o(i.L6470_GoHome)
    i.L6470_GoMark                           0x08002ef4   Section        0  l6470.o(i.L6470_GoMark)
    i.L6470_GoTo                             0x08002f28   Section        0  l6470.o(i.L6470_GoTo)
    i.L6470_GoToDir                          0x08002f64   Section        0  l6470.o(i.L6470_GoToDir)
    i.L6470_GoUntil                          0x08002fa4   Section        0  l6470.o(i.L6470_GoUntil)
    i.L6470_HardHiZ                          0x08002fe0   Section        0  l6470.o(i.L6470_HardHiZ)
    i.L6470_HardStop                         0x08003014   Section        0  l6470.o(i.L6470_HardStop)
    i.L6470_ID                               0x08003048   Section        0  l6470.o(i.L6470_ID)
    i.L6470_Move                             0x0800305c   Section        0  l6470.o(i.L6470_Move)
    i.L6470_PerformPreparedApplicationCommand 0x08003094   Section        0  l6470.o(i.L6470_PerformPreparedApplicationCommand)
    i.L6470_PrepareAppCmdPkg                 0x080030b8   Section        0  l6470.o(i.L6470_PrepareAppCmdPkg)
    i.L6470_PrepareDaisyChainCommand         0x080030f4   Section        0  l6470.o(i.L6470_PrepareDaisyChainCommand)
    i.L6470_PrepareGetParam                  0x0800337c   Section        0  l6470.o(i.L6470_PrepareGetParam)
    i.L6470_PrepareGetStatus                 0x0800339c   Section        0  l6470.o(i.L6470_PrepareGetStatus)
    i.L6470_PrepareGoHome                    0x080033b8   Section        0  l6470.o(i.L6470_PrepareGoHome)
    i.L6470_PrepareGoMark                    0x080033d4   Section        0  l6470.o(i.L6470_PrepareGoMark)
    i.L6470_PrepareGoTo                      0x080033f0   Section        0  l6470.o(i.L6470_PrepareGoTo)
    i.L6470_PrepareGoToDir                   0x08003410   Section        0  l6470.o(i.L6470_PrepareGoToDir)
    i.L6470_PrepareGoUntil                   0x08003430   Section        0  l6470.o(i.L6470_PrepareGoUntil)
    i.L6470_PrepareHardHiZ                   0x08003450   Section        0  l6470.o(i.L6470_PrepareHardHiZ)
    i.L6470_PrepareHardStop                  0x0800346c   Section        0  l6470.o(i.L6470_PrepareHardStop)
    i.L6470_PrepareMove                      0x08003488   Section        0  l6470.o(i.L6470_PrepareMove)
    i.L6470_PrepareReleaseSW                 0x080034a8   Section        0  l6470.o(i.L6470_PrepareReleaseSW)
    i.L6470_PrepareResetDevice               0x080034c8   Section        0  l6470.o(i.L6470_PrepareResetDevice)
    i.L6470_PrepareResetPos                  0x080034e4   Section        0  l6470.o(i.L6470_PrepareResetPos)
    i.L6470_PrepareRun                       0x08003500   Section        0  l6470.o(i.L6470_PrepareRun)
    i.L6470_PrepareSetParam                  0x08003520   Section        0  l6470.o(i.L6470_PrepareSetParam)
    i.L6470_PrepareSoftHiZ                   0x08003540   Section        0  l6470.o(i.L6470_PrepareSoftHiZ)
    i.L6470_PrepareSoftStop                  0x0800355c   Section        0  l6470.o(i.L6470_PrepareSoftStop)
    i.L6470_PrepareStepClock                 0x08003578   Section        0  l6470.o(i.L6470_PrepareStepClock)
    i.L6470_ReleaseSW                        0x08003598   Section        0  l6470.o(i.L6470_ReleaseSW)
    i.L6470_ResetAppCmdPkg                   0x080035d0   Section        0  l6470.o(i.L6470_ResetAppCmdPkg)
    i.L6470_ResetDevice                      0x080035fc   Section        0  l6470.o(i.L6470_ResetDevice)
    i.L6470_ResetPos                         0x08003630   Section        0  l6470.o(i.L6470_ResetPos)
    i.L6470_Run                              0x08003664   Section        0  l6470.o(i.L6470_Run)
    i.L6470_SetParam                         0x0800369c   Section        0  l6470.o(i.L6470_SetParam)
    i.L6470_SoftHiZ                          0x080036d4   Section        0  l6470.o(i.L6470_SoftHiZ)
    i.L6470_SoftStop                         0x08003708   Section        0  l6470.o(i.L6470_SoftStop)
    i.L6470_StepClock                        0x0800373c   Section        0  l6470.o(i.L6470_StepClock)
    i.MX_GPIO_Init                           0x08003774   Section        0  xnucleoihm02a1_interface.o(i.MX_GPIO_Init)
    i.MX_SPI1_Init                           0x08003778   Section        0  xnucleoihm02a1_interface.o(i.MX_SPI1_Init)
    i.MX_SPI_Init                            0x0800380c   Section        0  xnucleoihm02a1_interface.o(i.MX_SPI_Init)
    i.MicrosteppingMotor_Example_01          0x08003814   Section        0  example.o(i.MicrosteppingMotor_Example_01)
    i.NUCLEO_Board_Init                      0x08004334   Section        0  xnucleoihm02a1_interface.o(i.NUCLEO_Board_Init)
    i.NVIC_GetPriorityGrouping               0x08004348   Section        0  stm32f4xx_hal_cortex.o(i.NVIC_GetPriorityGrouping)
    NVIC_GetPriorityGrouping                 0x08004349   Thumb Code    10  stm32f4xx_hal_cortex.o(i.NVIC_GetPriorityGrouping)
    i.NVIC_SetPriority                       0x08004358   Section        0  stm32f4xx_hal_cortex.o(i.NVIC_SetPriority)
    NVIC_SetPriority                         0x08004359   Thumb Code    32  stm32f4xx_hal_cortex.o(i.NVIC_SetPriority)
    i.SPI_WaitOnFlagUntilTimeout             0x08004380   Section        0  stm32f4xx_hal_spi.o(i.SPI_WaitOnFlagUntilTimeout)
    SPI_WaitOnFlagUntilTimeout               0x08004381   Thumb Code   276  stm32f4xx_hal_spi.o(i.SPI_WaitOnFlagUntilTimeout)
    i.Step_s2_2_Acc                          0x08004494   Section        0  l6470.o(i.Step_s2_2_Acc)
    i.Step_s2_2_Dec                          0x080044c4   Section        0  l6470.o(i.Step_s2_2_Dec)
    i.Step_s_2_FsSpd                         0x080044f4   Section        0  l6470.o(i.Step_s_2_FsSpd)
    i.Step_s_2_IntSpeed                      0x08004548   Section        0  l6470.o(i.Step_s_2_IntSpeed)
    i.Step_s_2_MaxSpeed                      0x08004578   Section        0  l6470.o(i.Step_s_2_MaxSpeed)
    i.Step_s_2_MinSpeed                      0x080045a8   Section        0  l6470.o(i.Step_s_2_MinSpeed)
    i.SysTick_Handler                        0x080045d8   Section        0  stm32f4xx_it.o(i.SysTick_Handler)
    i.SystemClock_Config                     0x080045e4   Section        0  xnucleoihm02a1_interface.o(i.SystemClock_Config)
    i.SystemInit                             0x0800467c   Section        0  system_stm32f4xx.o(i.SystemInit)
    i.UART_EndTransmit_IT                    0x080046e0   Section        0  stm32f4xx_hal_uart.o(i.UART_EndTransmit_IT)
    UART_EndTransmit_IT                      0x080046e1   Thumb Code    72  stm32f4xx_hal_uart.o(i.UART_EndTransmit_IT)
    i.UART_Receive_IT                        0x08004728   Section        0  stm32f4xx_hal_uart.o(i.UART_Receive_IT)
    UART_Receive_IT                          0x08004729   Thumb Code   188  stm32f4xx_hal_uart.o(i.UART_Receive_IT)
    i.UART_Transmit_IT                       0x080047e4   Section        0  stm32f4xx_hal_uart.o(i.UART_Transmit_IT)
    UART_Transmit_IT                         0x080047e5   Thumb Code   112  stm32f4xx_hal_uart.o(i.UART_Transmit_IT)
    i.UART_WaitOnFlagUntilTimeout            0x08004854   Section        0  stm32f4xx_hal_uart.o(i.UART_WaitOnFlagUntilTimeout)
    UART_WaitOnFlagUntilTimeout              0x08004855   Thumb Code   250  stm32f4xx_hal_uart.o(i.UART_WaitOnFlagUntilTimeout)
    i.USART2_IRQHandler                      0x08004950   Section        0  stm32f4xx_it.o(i.USART2_IRQHandler)
    i.USART_ITCharManager                    0x08004964   Section        0  example_usart.o(i.USART_ITCharManager)
    i.USART_Transmit                         0x080049e0   Section        0  example_usart.o(i.USART_Transmit)
    i.__ARM_fpclassify                       0x08004a08   Section        0  fpclassify.o(i.__ARM_fpclassify)
    i.__hardfp_acos                          0x08004a38   Section        0  acos.o(i.__hardfp_acos)
    i.__hardfp_asin                          0x08004d90   Section        0  asin.o(i.__hardfp_asin)
    i.__hardfp_atan                          0x080050f0   Section        0  atan.o(i.__hardfp_atan)
    i.__hardfp_fabs                          0x080053c8   Section        0  fabs.o(i.__hardfp_fabs)
    i.__hardfp_pow                           0x080053e0   Section        0  pow.o(i.__hardfp_pow)
    i.__hardfp_sqrt                          0x08006030   Section        0  sqrt.o(i.__hardfp_sqrt)
    i.__kernel_poly                          0x080060aa   Section        0  poly.o(i.__kernel_poly)
    i.__mathlib_dbl_divzero                  0x080061a8   Section        0  dunder.o(i.__mathlib_dbl_divzero)
    i.__mathlib_dbl_infnan                   0x080061d8   Section        0  dunder.o(i.__mathlib_dbl_infnan)
    i.__mathlib_dbl_infnan2                  0x080061ec   Section        0  dunder.o(i.__mathlib_dbl_infnan2)
    i.__mathlib_dbl_invalid                  0x08006200   Section        0  dunder.o(i.__mathlib_dbl_invalid)
    i.__mathlib_dbl_overflow                 0x08006220   Section        0  dunder.o(i.__mathlib_dbl_overflow)
    i.__mathlib_dbl_underflow                0x08006240   Section        0  dunder.o(i.__mathlib_dbl_underflow)
    i.__scatterload_copy                     0x08006260   Section       14  handlers.o(i.__scatterload_copy)
    i.__scatterload_null                     0x0800626e   Section        2  handlers.o(i.__scatterload_null)
    i.__scatterload_zeroinit                 0x08006270   Section       14  handlers.o(i.__scatterload_zeroinit)
    i.__set_errno                            0x08006280   Section        0  errno.o(i.__set_errno)
    i.angle_to_steps                         0x0800628c   Section        0  example.o(i.angle_to_steps)
    i.assert_failed                          0x080062dc   Section        0  main.o(i.assert_failed)
    i.calc_L                                 0x080062e0   Section        0  example.o(i.calc_L)
    i.calc_alpha                             0x080063ac   Section        0  example.o(i.calc_alpha)
    i.calc_beta                              0x0800642c   Section        0  example.o(i.calc_beta)
    i.calc_gamma                             0x08006584   Section        0  example.o(i.calc_gamma)
    i.fabs                                   0x08006680   Section        0  fabs.o(i.fabs)
    i.find_Dir_beta                          0x08006698   Section        0  example.o(i.find_Dir_beta)
    i.gripper_angle_to_steps                 0x080066ac   Section        0  example.o(i.gripper_angle_to_steps)
    i.mA_2_OcdTh                             0x080066f8   Section        0  l6470.o(i.mA_2_OcdTh)
    i.mA_2_StallTh                           0x0800675c   Section        0  l6470.o(i.mA_2_StallTh)
    i.main                                   0x080067c0   Section        0  main.o(i.main)
    i.s_Step_2_FnSlpAcc                      0x080067ec   Section        0  l6470.o(i.s_Step_2_FnSlpAcc)
    i.s_Step_2_FnSlpDec                      0x0800681c   Section        0  l6470.o(i.s_Step_2_FnSlpDec)
    i.s_Step_2_StSlp                         0x0800684c   Section        0  l6470.o(i.s_Step_2_StSlp)
    i.sqrt                                   0x0800687c   Section        0  sqrt.o(i.sqrt)
    .constdata                               0x080068ec   Section      794  l6470.o(.constdata)
    .constdata                               0x08006c06   Section       16  stm32f4xx_hal_rcc.o(.constdata)
    .constdata                               0x08006c18   Section      704  params.o(.constdata)
    .constdata                               0x08006ed8   Section       80  acos.o(.constdata)
    pS                                       0x08006ed8   Data          48  acos.o(.constdata)
    qS                                       0x08006f08   Data          32  acos.o(.constdata)
    .constdata                               0x08006f28   Section       80  asin.o(.constdata)
    pS                                       0x08006f28   Data          48  asin.o(.constdata)
    qS                                       0x08006f58   Data          32  asin.o(.constdata)
    .constdata                               0x08006f78   Section      152  atan.o(.constdata)
    atanhi                                   0x08006f78   Data          32  atan.o(.constdata)
    atanlo                                   0x08006f98   Data          32  atan.o(.constdata)
    aTodd                                    0x08006fb8   Data          40  atan.o(.constdata)
    aTeven                                   0x08006fe0   Data          48  atan.o(.constdata)
    .constdata                               0x08007010   Section      136  pow.o(.constdata)
    bp                                       0x08007010   Data          16  pow.o(.constdata)
    dp_h                                     0x08007020   Data          16  pow.o(.constdata)
    dp_l                                     0x08007030   Data          16  pow.o(.constdata)
    L                                        0x08007040   Data          48  pow.o(.constdata)
    P                                        0x08007070   Data          40  pow.o(.constdata)
    .constdata                               0x08007098   Section        8  qnan.o(.constdata)
    .data                                    0x20000000   Section      173  l6470.o(.data)
    .data                                    0x200000b0   Section        4  stm32f4xx_hal.o(.data)
    uwTick                                   0x200000b0   Data           4  stm32f4xx_hal.o(.data)
    .data                                    0x200000b4   Section      728  xnucleoihm02a1.o(.data)
    .data                                    0x2000038c   Section        4  system_stm32f4xx.o(.data)
    .data                                    0x20000390   Section        4  errno.o(.data)
    _errno                                   0x20000390   Data           4  errno.o(.data)
    .bss                                     0x20000394   Section       32  l6470.o(.bss)
    .bss                                     0x200003b4   Section       24  xnucleoihm02a1.o(.bss)
    .bss                                     0x200003cc   Section      244  xnucleoihm02a1_interface.o(.bss)
    .bss                                     0x200004c0   Section      259  example_usart.o(.bss)
    HexValue                                 0x200005ba   Data           9  example_usart.o(.bss)
    .bss                                     0x200005c4   Section      172  example.o(.bss)
    huart2                                   0x20000630   Data          64  example.o(.bss)
    STACK                                    0x20000670   Section     1024  startup_stm32f401xe.o(STACK)

    Global Symbols

    Symbol Name                              Value     Ov Type        Size  Object(Section)

    BuildAttributes$$THM_ISAv4$E$P$D$K$B$S$7EM$VFPi3$EXTD16$VFPS$VFMA$PE$A:L22UL41UL21$X:L11$S22US41US21$IEEE1$IW$USESV6$~STKCKD$USESV7$~SHL$OTIME$ROPI$IEEEX$EBA8$MICROLIB$REQ8$PRES8$EABIv2 0x00000000   Number         0  anon$$obj.o ABSOLUTE
    __ARM_use_no_argv                        0x00000000   Number         0  main.o ABSOLUTE
    __cpp_initialize__aeabi_                  - Undefined Weak Reference
    __cxa_finalize                            - Undefined Weak Reference
    _clock_init                               - Undefined Weak Reference
    _microlib_exit                            - Undefined Weak Reference
    __Vectors_Size                           0x00000194   Number         0  startup_stm32f401xe.o ABSOLUTE
    __Vectors                                0x08000000   Data           4  startup_stm32f401xe.o(RESET)
    __Vectors_End                            0x08000194   Data           0  startup_stm32f401xe.o(RESET)
    __main                                   0x08000195   Thumb Code     0  entry.o(.ARM.Collect$$$$00000000)
    _main_stk                                0x08000195   Thumb Code     0  entry2.o(.ARM.Collect$$$$00000001)
    _main_scatterload                        0x08000199   Thumb Code     0  entry5.o(.ARM.Collect$$$$00000004)
    __main_after_scatterload                 0x0800019d   Thumb Code     0  entry5.o(.ARM.Collect$$$$00000004)
    _main_clock                              0x0800019d   Thumb Code     0  entry7b.o(.ARM.Collect$$$$00000008)
    _main_cpp_init                           0x0800019d   Thumb Code     0  entry8b.o(.ARM.Collect$$$$0000000A)
    _main_init                               0x0800019d   Thumb Code     0  entry9a.o(.ARM.Collect$$$$0000000B)
    __rt_final_cpp                           0x080001a5   Thumb Code     0  entry10a.o(.ARM.Collect$$$$0000000D)
    __rt_final_exit                          0x080001a5   Thumb Code     0  entry11a.o(.ARM.Collect$$$$0000000F)
    Reset_Handler                            0x080001a9   Thumb Code     8  startup_stm32f401xe.o(.text)
    NMI_Handler                              0x080001b1   Thumb Code     2  startup_stm32f401xe.o(.text)
    HardFault_Handler                        0x080001b3   Thumb Code     2  startup_stm32f401xe.o(.text)
    MemManage_Handler                        0x080001b5   Thumb Code     2  startup_stm32f401xe.o(.text)
    BusFault_Handler                         0x080001b7   Thumb Code     2  startup_stm32f401xe.o(.text)
    UsageFault_Handler                       0x080001b9   Thumb Code     2  startup_stm32f401xe.o(.text)
    SVC_Handler                              0x080001bb   Thumb Code     2  startup_stm32f401xe.o(.text)
    DebugMon_Handler                         0x080001bd   Thumb Code     2  startup_stm32f401xe.o(.text)
    PendSV_Handler                           0x080001bf   Thumb Code     2  startup_stm32f401xe.o(.text)
    ADC_IRQHandler                           0x080001c3   Thumb Code     0  startup_stm32f401xe.o(.text)
    DMA1_Stream0_IRQHandler                  0x080001c3   Thumb Code     0  startup_stm32f401xe.o(.text)
    DMA1_Stream1_IRQHandler                  0x080001c3   Thumb Code     0  startup_stm32f401xe.o(.text)
    DMA1_Stream2_IRQHandler                  0x080001c3   Thumb Code     0  startup_stm32f401xe.o(.text)
    DMA1_Stream3_IRQHandler                  0x080001c3   Thumb Code     0  startup_stm32f401xe.o(.text)
    DMA1_Stream4_IRQHandler                  0x080001c3   Thumb Code     0  startup_stm32f401xe.o(.text)
    DMA1_Stream5_IRQHandler                  0x080001c3   Thumb Code     0  startup_stm32f401xe.o(.text)
    DMA1_Stream6_IRQHandler                  0x080001c3   Thumb Code     0  startup_stm32f401xe.o(.text)
    DMA1_Stream7_IRQHandler                  0x080001c3   Thumb Code     0  startup_stm32f401xe.o(.text)
    DMA2_Stream0_IRQHandler                  0x080001c3   Thumb Code     0  startup_stm32f401xe.o(.text)
    DMA2_Stream1_IRQHandler                  0x080001c3   Thumb Code     0  startup_stm32f401xe.o(.text)
    DMA2_Stream2_IRQHandler                  0x080001c3   Thumb Code     0  startup_stm32f401xe.o(.text)
    DMA2_Stream3_IRQHandler                  0x080001c3   Thumb Code     0  startup_stm32f401xe.o(.text)
    DMA2_Stream4_IRQHandler                  0x080001c3   Thumb Code     0  startup_stm32f401xe.o(.text)
    DMA2_Stream5_IRQHandler                  0x080001c3   Thumb Code     0  startup_stm32f401xe.o(.text)
    DMA2_Stream6_IRQHandler                  0x080001c3   Thumb Code     0  startup_stm32f401xe.o(.text)
    DMA2_Stream7_IRQHandler                  0x080001c3   Thumb Code     0  startup_stm32f401xe.o(.text)
    EXTI2_IRQHandler                         0x080001c3   Thumb Code     0  startup_stm32f401xe.o(.text)
    EXTI3_IRQHandler                         0x080001c3   Thumb Code     0  startup_stm32f401xe.o(.text)
    EXTI9_5_IRQHandler                       0x080001c3   Thumb Code     0  startup_stm32f401xe.o(.text)
    FLASH_IRQHandler                         0x080001c3   Thumb Code     0  startup_stm32f401xe.o(.text)
    FPU_IRQHandler                           0x080001c3   Thumb Code     0  startup_stm32f401xe.o(.text)
    I2C1_ER_IRQHandler                       0x080001c3   Thumb Code     0  startup_stm32f401xe.o(.text)
    I2C1_EV_IRQHandler                       0x080001c3   Thumb Code     0  startup_stm32f401xe.o(.text)
    I2C2_ER_IRQHandler                       0x080001c3   Thumb Code     0  startup_stm32f401xe.o(.text)
    I2C2_EV_IRQHandler                       0x080001c3   Thumb Code     0  startup_stm32f401xe.o(.text)
    I2C3_ER_IRQHandler                       0x080001c3   Thumb Code     0  startup_stm32f401xe.o(.text)
    I2C3_EV_IRQHandler                       0x080001c3   Thumb Code     0  startup_stm32f401xe.o(.text)
    OTG_FS_IRQHandler                        0x080001c3   Thumb Code     0  startup_stm32f401xe.o(.text)
    OTG_FS_WKUP_IRQHandler                   0x080001c3   Thumb Code     0  startup_stm32f401xe.o(.text)
    PVD_IRQHandler                           0x080001c3   Thumb Code     0  startup_stm32f401xe.o(.text)
    RCC_IRQHandler                           0x080001c3   Thumb Code     0  startup_stm32f401xe.o(.text)
    RTC_Alarm_IRQHandler                     0x080001c3   Thumb Code     0  startup_stm32f401xe.o(.text)
    RTC_WKUP_IRQHandler                      0x080001c3   Thumb Code     0  startup_stm32f401xe.o(.text)
    SDIO_IRQHandler                          0x080001c3   Thumb Code     0  startup_stm32f401xe.o(.text)
    SPI1_IRQHandler                          0x080001c3   Thumb Code     0  startup_stm32f401xe.o(.text)
    SPI2_IRQHandler                          0x080001c3   Thumb Code     0  startup_stm32f401xe.o(.text)
    SPI3_IRQHandler                          0x080001c3   Thumb Code     0  startup_stm32f401xe.o(.text)
    SPI4_IRQHandler                          0x080001c3   Thumb Code     0  startup_stm32f401xe.o(.text)
    TAMP_STAMP_IRQHandler                    0x080001c3   Thumb Code     0  startup_stm32f401xe.o(.text)
    TIM1_BRK_TIM9_IRQHandler                 0x080001c3   Thumb Code     0  startup_stm32f401xe.o(.text)
    TIM1_CC_IRQHandler                       0x080001c3   Thumb Code     0  startup_stm32f401xe.o(.text)
    TIM1_TRG_COM_TIM11_IRQHandler            0x080001c3   Thumb Code     0  startup_stm32f401xe.o(.text)
    TIM1_UP_TIM10_IRQHandler                 0x080001c3   Thumb Code     0  startup_stm32f401xe.o(.text)
    TIM2_IRQHandler                          0x080001c3   Thumb Code     0  startup_stm32f401xe.o(.text)
    TIM3_IRQHandler                          0x080001c3   Thumb Code     0  startup_stm32f401xe.o(.text)
    TIM4_IRQHandler                          0x080001c3   Thumb Code     0  startup_stm32f401xe.o(.text)
    TIM5_IRQHandler                          0x080001c3   Thumb Code     0  startup_stm32f401xe.o(.text)
    USART1_IRQHandler                        0x080001c3   Thumb Code     0  startup_stm32f401xe.o(.text)
    USART6_IRQHandler                        0x080001c3   Thumb Code     0  startup_stm32f401xe.o(.text)
    WWDG_IRQHandler                          0x080001c3   Thumb Code     0  startup_stm32f401xe.o(.text)
    __aeabi_dadd                             0x080001cd   Thumb Code   322  dadd.o(.text)
    __aeabi_dsub                             0x0800030f   Thumb Code     6  dadd.o(.text)
    __aeabi_drsub                            0x08000315   Thumb Code     6  dadd.o(.text)
    __aeabi_dmul                             0x0800031b   Thumb Code   228  dmul.o(.text)
    __aeabi_ddiv                             0x080003ff   Thumb Code   222  ddiv.o(.text)
    __aeabi_d2iz                             0x080004dd   Thumb Code    62  dfixi.o(.text)
    __aeabi_d2uiz                            0x0800051b   Thumb Code    50  dfixui.o(.text)
    __aeabi_f2d                              0x0800054d   Thumb Code    38  f2d.o(.text)
    __aeabi_cdcmpeq                          0x08000575   Thumb Code     0  cdcmple.o(.text)
    __aeabi_cdcmple                          0x08000575   Thumb Code    48  cdcmple.o(.text)
    __aeabi_d2f                              0x080005a5   Thumb Code    56  d2f.o(.text)
    __aeabi_llsl                             0x080005dd   Thumb Code    30  llshl.o(.text)
    _ll_shift_l                              0x080005dd   Thumb Code     0  llshl.o(.text)
    __aeabi_llsr                             0x080005fb   Thumb Code    32  llushr.o(.text)
    _ll_ushift_r                             0x080005fb   Thumb Code     0  llushr.o(.text)
    __aeabi_lasr                             0x0800061b   Thumb Code    36  llsshr.o(.text)
    _ll_sshift_r                             0x0800061b   Thumb Code     0  llsshr.o(.text)
    __I$use$fp                               0x0800063f   Thumb Code     0  iusefp.o(.text)
    _float_round                             0x0800063f   Thumb Code    18  fepilogue.o(.text)
    _float_epilogue                          0x08000651   Thumb Code    92  fepilogue.o(.text)
    _double_round                            0x080006ad   Thumb Code    30  depilogue.o(.text)
    _double_epilogue                         0x080006cb   Thumb Code   156  depilogue.o(.text)
    __ARM_scalbn                             0x08000767   Thumb Code    46  dscalb.o(.text)
    scalbn                                   0x08000767   Thumb Code     0  dscalb.o(.text)
    _dsqrt                                   0x08000795   Thumb Code   162  dsqrt.o(.text)
    __aeabi_i2d                              0x08000837   Thumb Code    34  dflti.o(.text)
    __aeabi_cdrcmple                         0x08000859   Thumb Code    48  cdrcmple.o(.text)
    __scatterload                            0x08000889   Thumb Code    28  init.o(.text)
    __scatterload_rt2                        0x08000889   Thumb Code     0  init.o(.text)
    __decompress                             0x080008ad   Thumb Code     0  __dczerorl2.o(.text)
    __decompress1                            0x080008ad   Thumb Code    86  __dczerorl2.o(.text)
    BSP_0_Config                             0x08000905   Thumb Code    16  xnucleoihm02a1.o(i.BSP_0_Config)
    BSP_1_Config                             0x08000919   Thumb Code    16  xnucleoihm02a1.o(i.BSP_1_Config)
    BSP_2_Config                             0x0800092d   Thumb Code    16  xnucleoihm02a1.o(i.BSP_2_Config)
    BSP_3_Config                             0x08000941   Thumb Code    16  xnucleoihm02a1.o(i.BSP_3_Config)
    BSP_Config                               0x08000955   Thumb Code    32  xnucleoihm02a1.o(i.BSP_Config)
    BSP_GetExpansionBoardHandle              0x08000975   Thumb Code    70  xnucleoihm02a1.o(i.BSP_GetExpansionBoardHandle)
    BSP_IRQ                                  0x080009c1   Thumb Code    36  xnucleoihm02a1.o(i.BSP_IRQ)
    BSP_Init                                 0x080009e5   Thumb Code    30  xnucleoihm02a1.o(i.BSP_Init)
    BSP_L6470_0_0_Config                     0x08000a05   Thumb Code    16  xnucleoihm02a1.o(i.BSP_L6470_0_0_Config)
    BSP_L6470_0_1_Config                     0x08000a19   Thumb Code    16  xnucleoihm02a1.o(i.BSP_L6470_0_1_Config)
    BSP_L6470_1_0_Config                     0x08000a2d   Thumb Code    16  xnucleoihm02a1.o(i.BSP_L6470_1_0_Config)
    BSP_L6470_1_1_Config                     0x08000a41   Thumb Code    16  xnucleoihm02a1.o(i.BSP_L6470_1_1_Config)
    BSP_L6470_2_0_Config                     0x08000a55   Thumb Code    16  xnucleoihm02a1.o(i.BSP_L6470_2_0_Config)
    BSP_L6470_2_1_Config                     0x08000a69   Thumb Code    16  xnucleoihm02a1.o(i.BSP_L6470_2_1_Config)
    BSP_L6470_3_0_Config                     0x08000a7d   Thumb Code    16  xnucleoihm02a1.o(i.BSP_L6470_3_0_Config)
    BSP_L6470_3_1_Config                     0x08000a91   Thumb Code    16  xnucleoihm02a1.o(i.BSP_L6470_3_1_Config)
    BSP_L6470_CheckStatusRegisterFlag        0x08000aa5   Thumb Code    30  xnucleoihm02a1.o(i.BSP_L6470_CheckStatusRegisterFlag)
    BSP_L6470_GetParam                       0x08000ac3   Thumb Code    30  xnucleoihm02a1.o(i.BSP_L6470_GetParam)
    BSP_L6470_GetStatus                      0x08000ae1   Thumb Code    26  xnucleoihm02a1.o(i.BSP_L6470_GetStatus)
    BSP_L6470_GoHome                         0x08000afb   Thumb Code    22  xnucleoihm02a1.o(i.BSP_L6470_GoHome)
    BSP_L6470_GoMark                         0x08000b11   Thumb Code    22  xnucleoihm02a1.o(i.BSP_L6470_GoMark)
    BSP_L6470_GoTo                           0x08000b27   Thumb Code    26  xnucleoihm02a1.o(i.BSP_L6470_GoTo)
    BSP_L6470_GoToDir                        0x08000b41   Thumb Code    34  xnucleoihm02a1.o(i.BSP_L6470_GoToDir)
    BSP_L6470_GoUntil                        0x08000b63   Thumb Code    40  xnucleoihm02a1.o(i.BSP_L6470_GoUntil)
    BSP_L6470_HardHiZ                        0x08000b8b   Thumb Code    22  xnucleoihm02a1.o(i.BSP_L6470_HardHiZ)
    BSP_L6470_HardStop                       0x08000ba1   Thumb Code    22  xnucleoihm02a1.o(i.BSP_L6470_HardStop)
    BSP_L6470_Init                           0x08000bb9   Thumb Code   118  xnucleoihm02a1.o(i.BSP_L6470_Init)
    BSP_L6470_Move                           0x08000c39   Thumb Code    34  xnucleoihm02a1.o(i.BSP_L6470_Move)
    BSP_L6470_ReleaseSW                      0x08000c5b   Thumb Code    34  xnucleoihm02a1.o(i.BSP_L6470_ReleaseSW)
    BSP_L6470_ResetDevice                    0x08000c7d   Thumb Code    22  xnucleoihm02a1.o(i.BSP_L6470_ResetDevice)
    BSP_L6470_ResetPos                       0x08000c93   Thumb Code    22  xnucleoihm02a1.o(i.BSP_L6470_ResetPos)
    BSP_L6470_Run                            0x08000ca9   Thumb Code    34  xnucleoihm02a1.o(i.BSP_L6470_Run)
    BSP_L6470_SetParam                       0x08000ccb   Thumb Code    34  xnucleoihm02a1.o(i.BSP_L6470_SetParam)
    BSP_L6470_SoftHiZ                        0x08000ced   Thumb Code    22  xnucleoihm02a1.o(i.BSP_L6470_SoftHiZ)
    BSP_L6470_SoftStop                       0x08000d03   Thumb Code    22  xnucleoihm02a1.o(i.BSP_L6470_SoftStop)
    BSP_L6470_StepClock                      0x08000d19   Thumb Code    26  xnucleoihm02a1.o(i.BSP_L6470_StepClock)
    BSP_NUCLEO_GPIO_Init                     0x08000d35   Thumb Code   232  xnucleoihm02a1.o(i.BSP_NUCLEO_GPIO_Init)
    BSP_Select                               0x08000e35   Thumb Code    60  xnucleoihm02a1.o(i.BSP_Select)
    EXPBRD_ID                                0x08000e79   Thumb Code    14  xnucleoihm02a1.o(i.EXPBRD_ID)
    EXTI0_IRQHandler                         0x08000e87   Thumb Code    10  stm32f4xx_it.o(i.EXTI0_IRQHandler)
    EXTI15_10_IRQHandler                     0x08000e91   Thumb Code    12  stm32f4xx_it.o(i.EXTI15_10_IRQHandler)
    EXTI1_IRQHandler                         0x08000e9d   Thumb Code    10  stm32f4xx_it.o(i.EXTI1_IRQHandler)
    EXTI4_IRQHandler                         0x08000ea9   Thumb Code    32  stm32f4xx_it.o(i.EXTI4_IRQHandler)
    GetMotorParameterInitData                0x08000ecd   Thumb Code     4  params.o(i.GetMotorParameterInitData)
    HAL_Delay                                0x08000ed5   Thumb Code    26  stm32f4xx_hal.o(i.HAL_Delay)
    HAL_GPIO_EXTI_Callback                   0x08000eef   Thumb Code     2  stm32f4xx_hal_gpio.o(i.HAL_GPIO_EXTI_Callback)
    HAL_GPIO_EXTI_IRQHandler                 0x08000ef1   Thumb Code    24  stm32f4xx_hal_gpio.o(i.HAL_GPIO_EXTI_IRQHandler)
    HAL_GPIO_Init                            0x08000f0d   Thumb Code   828  stm32f4xx_hal_gpio.o(i.HAL_GPIO_Init)
    HAL_GPIO_ReadPin                         0x080012c1   Thumb Code    38  stm32f4xx_hal_gpio.o(i.HAL_GPIO_ReadPin)
    HAL_GPIO_WritePin                        0x08001325   Thumb Code    54  stm32f4xx_hal_gpio.o(i.HAL_GPIO_WritePin)
    HAL_GetTick                              0x08001399   Thumb Code     6  stm32f4xx_hal.o(i.HAL_GetTick)
    HAL_IncTick                              0x080013a5   Thumb Code    12  stm32f4xx_hal.o(i.HAL_IncTick)
    HAL_Init                                 0x080013b5   Thumb Code    54  stm32f4xx_hal.o(i.HAL_Init)
    HAL_InitTick                             0x080013f1   Thumb Code    36  stm32f4xx_hal.o(i.HAL_InitTick)
    HAL_MspInit                              0x08001415   Thumb Code    20  stm32f4xx_hal_msp.o(i.HAL_MspInit)
    HAL_NVIC_DisableIRQ                      0x08001429   Thumb Code    40  stm32f4xx_hal_cortex.o(i.HAL_NVIC_DisableIRQ)
    HAL_NVIC_EnableIRQ                       0x08001495   Thumb Code    44  stm32f4xx_hal_cortex.o(i.HAL_NVIC_EnableIRQ)
    HAL_NVIC_SetPriority                     0x08001501   Thumb Code   152  stm32f4xx_hal_cortex.o(i.HAL_NVIC_SetPriority)
    HAL_NVIC_SetPriorityGrouping             0x080015d9   Thumb Code    66  stm32f4xx_hal_cortex.o(i.HAL_NVIC_SetPriorityGrouping)
    HAL_RCC_ClockConfig                      0x08001665   Thumb Code  1108  stm32f4xx_hal_rcc.o(i.HAL_RCC_ClockConfig)
    HAL_RCC_GetHCLKFreq                      0x08001ab9   Thumb Code    42  stm32f4xx_hal_rcc.o(i.HAL_RCC_GetHCLKFreq)
    HAL_RCC_GetPCLK2Freq                     0x08001af1   Thumb Code    36  stm32f4xx_hal_rcc.o(i.HAL_RCC_GetPCLK2Freq)
    HAL_RCC_GetSysClockFreq                  0x08001b1d   Thumb Code   168  stm32f4xx_hal_rcc.o(i.HAL_RCC_GetSysClockFreq)
    HAL_RCC_OscConfig                        0x08001bd1   Thumb Code  1386  stm32f4xx_hal_rcc.o(i.HAL_RCC_OscConfig)
    HAL_SPI_Init                             0x08002145   Thumb Code   420  stm32f4xx_hal_spi.o(i.HAL_SPI_Init)
    HAL_SPI_MspInit                          0x08002325   Thumb Code   260  stm32f4xx_hal_msp.o(i.HAL_SPI_MspInit)
    HAL_SPI_TransmitReceive                  0x0800243d   Thumb Code   866  stm32f4xx_hal_spi.o(i.HAL_SPI_TransmitReceive)
    HAL_SYSTICK_Callback                     0x080027dd   Thumb Code     2  stm32f4xx_hal_cortex.o(i.HAL_SYSTICK_Callback)
    HAL_SYSTICK_Config                       0x080027df   Thumb Code    52  stm32f4xx_hal_cortex.o(i.HAL_SYSTICK_Config)
    HAL_SYSTICK_IRQHandler                   0x08002813   Thumb Code     8  stm32f4xx_hal_cortex.o(i.HAL_SYSTICK_IRQHandler)
    HAL_UART_ErrorCallback                   0x0800281b   Thumb Code     2  stm32f4xx_hal_uart.o(i.HAL_UART_ErrorCallback)
    HAL_UART_IRQHandler                      0x0800281d   Thumb Code   288  stm32f4xx_hal_uart.o(i.HAL_UART_IRQHandler)
    HAL_UART_RxCpltCallback                  0x0800293d   Thumb Code     2  stm32f4xx_hal_uart.o(i.HAL_UART_RxCpltCallback)
    HAL_UART_Transmit                        0x0800293f   Thumb Code   240  stm32f4xx_hal_uart.o(i.HAL_UART_Transmit)
    HAL_UART_TxCpltCallback                  0x08002a2f   Thumb Code     2  stm32f4xx_hal_uart.o(i.HAL_UART_TxCpltCallback)
    L6470_CheckStatusRegisterFlag            0x08002a31   Thumb Code   230  l6470.o(i.L6470_CheckStatusRegisterFlag)
    L6470_Config                             0x08002b1d   Thumb Code   586  l6470.o(i.L6470_Config)
    L6470_DaisyChainCommand                  0x08002d6d   Thumb Code    98  l6470.o(i.L6470_DaisyChainCommand)
    L6470_ExtractReturnedData                0x08002de1   Thumb Code    36  l6470.o(i.L6470_ExtractReturnedData)
    L6470_FillAppCmdPkg                      0x08002e05   Thumb Code    32  l6470.o(i.L6470_FillAppCmdPkg)
    L6470_GetParam                           0x08002e25   Thumb Code    72  l6470.o(i.L6470_GetParam)
    L6470_GetStatus                          0x08002e7d   Thumb Code    54  l6470.o(i.L6470_GetStatus)
    L6470_GoHome                             0x08002ec1   Thumb Code    40  l6470.o(i.L6470_GoHome)
    L6470_GoMark                             0x08002ef5   Thumb Code    40  l6470.o(i.L6470_GoMark)
    L6470_GoTo                               0x08002f29   Thumb Code    48  l6470.o(i.L6470_GoTo)
    L6470_GoToDir                            0x08002f65   Thumb Code    50  l6470.o(i.L6470_GoToDir)
    L6470_GoUntil                            0x08002fa5   Thumb Code    48  l6470.o(i.L6470_GoUntil)
    L6470_HardHiZ                            0x08002fe1   Thumb Code    40  l6470.o(i.L6470_HardHiZ)
    L6470_HardStop                           0x08003015   Thumb Code    40  l6470.o(i.L6470_HardStop)
    L6470_ID                                 0x08003049   Thumb Code    20  l6470.o(i.L6470_ID)
    L6470_Move                               0x0800305d   Thumb Code    44  l6470.o(i.L6470_Move)
    L6470_PerformPreparedApplicationCommand  0x08003095   Thumb Code    22  l6470.o(i.L6470_PerformPreparedApplicationCommand)
    L6470_PrepareAppCmdPkg                   0x080030b9   Thumb Code    54  l6470.o(i.L6470_PrepareAppCmdPkg)
    L6470_PrepareDaisyChainCommand           0x080030f5   Thumb Code   630  l6470.o(i.L6470_PrepareDaisyChainCommand)
    L6470_PrepareGetParam                    0x0800337d   Thumb Code    26  l6470.o(i.L6470_PrepareGetParam)
    L6470_PrepareGetStatus                   0x0800339d   Thumb Code    24  l6470.o(i.L6470_PrepareGetStatus)
    L6470_PrepareGoHome                      0x080033b9   Thumb Code    24  l6470.o(i.L6470_PrepareGoHome)
    L6470_PrepareGoMark                      0x080033d5   Thumb Code    24  l6470.o(i.L6470_PrepareGoMark)
    L6470_PrepareGoTo                        0x080033f1   Thumb Code    26  l6470.o(i.L6470_PrepareGoTo)
    L6470_PrepareGoToDir                     0x08003411   Thumb Code    28  l6470.o(i.L6470_PrepareGoToDir)
    L6470_PrepareGoUntil                     0x08003431   Thumb Code    28  l6470.o(i.L6470_PrepareGoUntil)
    L6470_PrepareHardHiZ                     0x08003451   Thumb Code    24  l6470.o(i.L6470_PrepareHardHiZ)
    L6470_PrepareHardStop                    0x0800346d   Thumb Code    24  l6470.o(i.L6470_PrepareHardStop)
    L6470_PrepareMove                        0x08003489   Thumb Code    28  l6470.o(i.L6470_PrepareMove)
    L6470_PrepareReleaseSW                   0x080034a9   Thumb Code    28  l6470.o(i.L6470_PrepareReleaseSW)
    L6470_PrepareResetDevice                 0x080034c9   Thumb Code    24  l6470.o(i.L6470_PrepareResetDevice)
    L6470_PrepareResetPos                    0x080034e5   Thumb Code    24  l6470.o(i.L6470_PrepareResetPos)
    L6470_PrepareRun                         0x08003501   Thumb Code    28  l6470.o(i.L6470_PrepareRun)
    L6470_PrepareSetParam                    0x08003521   Thumb Code    28  l6470.o(i.L6470_PrepareSetParam)
    L6470_PrepareSoftHiZ                     0x08003541   Thumb Code    24  l6470.o(i.L6470_PrepareSoftHiZ)
    L6470_PrepareSoftStop                    0x0800355d   Thumb Code    24  l6470.o(i.L6470_PrepareSoftStop)
    L6470_PrepareStepClock                   0x08003579   Thumb Code    26  l6470.o(i.L6470_PrepareStepClock)
    L6470_ReleaseSW                          0x08003599   Thumb Code    44  l6470.o(i.L6470_ReleaseSW)
    L6470_ResetAppCmdPkg                     0x080035d1   Thumb Code    42  l6470.o(i.L6470_ResetAppCmdPkg)
    L6470_ResetDevice                        0x080035fd   Thumb Code    40  l6470.o(i.L6470_ResetDevice)
    L6470_ResetPos                           0x08003631   Thumb Code    40  l6470.o(i.L6470_ResetPos)
    L6470_Run                                0x08003665   Thumb Code    44  l6470.o(i.L6470_Run)
    L6470_SetParam                           0x0800369d   Thumb Code    44  l6470.o(i.L6470_SetParam)
    L6470_SoftHiZ                            0x080036d5   Thumb Code    40  l6470.o(i.L6470_SoftHiZ)
    L6470_SoftStop                           0x08003709   Thumb Code    40  l6470.o(i.L6470_SoftStop)
    L6470_StepClock                          0x0800373d   Thumb Code    42  l6470.o(i.L6470_StepClock)
    MX_GPIO_Init                             0x08003775   Thumb Code     2  xnucleoihm02a1_interface.o(i.MX_GPIO_Init)
    MX_SPI1_Init                             0x08003779   Thumb Code   134  xnucleoihm02a1_interface.o(i.MX_SPI1_Init)
    MX_SPI_Init                              0x0800380d   Thumb Code     8  xnucleoihm02a1_interface.o(i.MX_SPI_Init)
    MicrosteppingMotor_Example_01            0x08003815   Thumb Code  2848  example.o(i.MicrosteppingMotor_Example_01)
    NUCLEO_Board_Init                        0x08004335   Thumb Code    20  xnucleoihm02a1_interface.o(i.NUCLEO_Board_Init)
    Step_s2_2_Acc                            0x08004495   Thumb Code    38  l6470.o(i.Step_s2_2_Acc)
    Step_s2_2_Dec                            0x080044c5   Thumb Code    38  l6470.o(i.Step_s2_2_Dec)
    Step_s_2_FsSpd                           0x080044f5   Thumb Code    72  l6470.o(i.Step_s_2_FsSpd)
    Step_s_2_IntSpeed                        0x08004549   Thumb Code    38  l6470.o(i.Step_s_2_IntSpeed)
    Step_s_2_MaxSpeed                        0x08004579   Thumb Code    38  l6470.o(i.Step_s_2_MaxSpeed)
    Step_s_2_MinSpeed                        0x080045a9   Thumb Code    38  l6470.o(i.Step_s_2_MinSpeed)
    SysTick_Handler                          0x080045d9   Thumb Code    12  stm32f4xx_it.o(i.SysTick_Handler)
    SystemClock_Config                       0x080045e5   Thumb Code   142  xnucleoihm02a1_interface.o(i.SystemClock_Config)
    SystemInit                               0x0800467d   Thumb Code    82  system_stm32f4xx.o(i.SystemInit)
    USART2_IRQHandler                        0x08004951   Thumb Code    16  stm32f4xx_it.o(i.USART2_IRQHandler)
    USART_ITCharManager                      0x08004965   Thumb Code   120  example_usart.o(i.USART_ITCharManager)
    USART_Transmit                           0x080049e1   Thumb Code    40  example_usart.o(i.USART_Transmit)
    __ARM_fpclassify                         0x08004a09   Thumb Code    48  fpclassify.o(i.__ARM_fpclassify)
    __hardfp_acos                            0x08004a39   Thumb Code   738  acos.o(i.__hardfp_acos)
    __hardfp_asin                            0x08004d91   Thumb Code   770  asin.o(i.__hardfp_asin)
    __hardfp_atan                            0x080050f1   Thumb Code   622  atan.o(i.__hardfp_atan)
    __hardfp_fabs                            0x080053c9   Thumb Code    20  fabs.o(i.__hardfp_fabs)
    __hardfp_pow                             0x080053e1   Thumb Code  3072  pow.o(i.__hardfp_pow)
    __hardfp_sqrt                            0x08006031   Thumb Code   122  sqrt.o(i.__hardfp_sqrt)
    __kernel_poly                            0x080060ab   Thumb Code   248  poly.o(i.__kernel_poly)
    __mathlib_dbl_divzero                    0x080061a9   Thumb Code    28  dunder.o(i.__mathlib_dbl_divzero)
    __mathlib_dbl_infnan                     0x080061d9   Thumb Code    20  dunder.o(i.__mathlib_dbl_infnan)
    __mathlib_dbl_infnan2                    0x080061ed   Thumb Code    20  dunder.o(i.__mathlib_dbl_infnan2)
    __mathlib_dbl_invalid                    0x08006201   Thumb Code    24  dunder.o(i.__mathlib_dbl_invalid)
    __mathlib_dbl_overflow                   0x08006221   Thumb Code    24  dunder.o(i.__mathlib_dbl_overflow)
    __mathlib_dbl_underflow                  0x08006241   Thumb Code    24  dunder.o(i.__mathlib_dbl_underflow)
    __scatterload_copy                       0x08006261   Thumb Code    14  handlers.o(i.__scatterload_copy)
    __scatterload_null                       0x0800626f   Thumb Code     2  handlers.o(i.__scatterload_null)
    __scatterload_zeroinit                   0x08006271   Thumb Code    14  handlers.o(i.__scatterload_zeroinit)
    __set_errno                              0x08006281   Thumb Code     6  errno.o(i.__set_errno)
    angle_to_steps                           0x0800628d   Thumb Code    66  example.o(i.angle_to_steps)
    assert_failed                            0x080062dd   Thumb Code     2  main.o(i.assert_failed)
    calc_L                                   0x080062e1   Thumb Code   196  example.o(i.calc_L)
    calc_alpha                               0x080063ad   Thumb Code   120  example.o(i.calc_alpha)
    calc_beta                                0x0800642d   Thumb Code   306  example.o(i.calc_beta)
    calc_gamma                               0x08006585   Thumb Code   220  example.o(i.calc_gamma)
    fabs                                     0x08006681   Thumb Code    24  fabs.o(i.fabs)
    find_Dir_beta                            0x08006699   Thumb Code    18  example.o(i.find_Dir_beta)
    gripper_angle_to_steps                   0x080066ad   Thumb Code    62  example.o(i.gripper_angle_to_steps)
    mA_2_OcdTh                               0x080066f9   Thumb Code    92  l6470.o(i.mA_2_OcdTh)
    mA_2_StallTh                             0x0800675d   Thumb Code    92  l6470.o(i.mA_2_StallTh)
    main                                     0x080067c1   Thumb Code    36  main.o(i.main)
    s_Step_2_FnSlpAcc                        0x080067ed   Thumb Code    38  l6470.o(i.s_Step_2_FnSlpAcc)
    s_Step_2_FnSlpDec                        0x0800681d   Thumb Code    38  l6470.o(i.s_Step_2_FnSlpDec)
    s_Step_2_StSlp                           0x0800684d   Thumb Code    38  l6470.o(i.s_Step_2_StSlp)
    sqrt                                     0x0800687d   Thumb Code   110  sqrt.o(i.sqrt)
    L6470_Register                           0x080068ec   Data         500  l6470.o(.constdata)
    L6470_ApplicationCommand                 0x08006ae0   Data         266  l6470.o(.constdata)
    L6470_Direction                          0x08006bea   Data          18  l6470.o(.constdata)
    L6470_ACT                                0x08006bfc   Data          10  l6470.o(.constdata)
    APBAHBPrescTable                         0x08006c06   Data          16  stm32f4xx_hal_rcc.o(.constdata)
    MotorParameterInitData                   0x08006c18   Data         704  params.o(.constdata)
    __mathlib_zero                           0x08007098   Data           8  qnan.o(.constdata)
    Region$$Table$$Base                      0x080070a0   Number         0  anon$$obj.o(Region$$Table)
    Region$$Table$$Limit                     0x080070c0   Number         0  anon$$obj.o(Region$$Table)
    L6470Command                             0x20000000   Data         148  l6470.o(.data)
    L6470_DaisyChainSpiTxStruct              0x20000094   Data           8  l6470.o(.data)
    L6470_DaisyChainSpiRxStruct              0x2000009c   Data           8  l6470.o(.data)
    L6470_DaisyChain_HalfPrepared            0x200000a4   Data           1  l6470.o(.data)
    L6470_StatusRegister                     0x200000a6   Data           2  l6470.o(.data)
    pL6470_StatusRegister                    0x200000a8   Data           4  l6470.o(.data)
    delay_cnt                                0x200000ac   Data           1  l6470.o(.data)
    XNUCLEOIHM02A1Command                    0x200000b4   Data          80  xnucleoihm02a1.o(.data)
    L6470DrvMtx                              0x20000104   Data         480  xnucleoihm02a1.o(.data)
    XNUCLEOIHM02A1Drv                        0x200002e4   Data          96  xnucleoihm02a1.o(.data)
    L6470_nSTBY_nRST_GPIO                    0x20000344   Data          12  xnucleoihm02a1.o(.data)
    L6470_nBUSY_SYNC_GPIO                    0x20000350   Data          12  xnucleoihm02a1.o(.data)
    L6470_nFLAG_GPIO                         0x2000035c   Data          12  xnucleoihm02a1.o(.data)
    L6470_nCS_GPIO_Array                     0x20000368   Data          36  xnucleoihm02a1.o(.data)
    SystemCoreClock                          0x2000038c   Data           4  system_stm32f4xx.o(.data)
    L6470_AppCmdPkg                          0x20000394   Data          32  l6470.o(.bss)
    L6470_nCS_GPIO                           0x200003b4   Data          12  xnucleoihm02a1.o(.bss)
    StatusBuffer                             0x200003c0   Data          12  xnucleoihm02a1.o(.bss)
    hadc1                                    0x200003cc   Data          68  xnucleoihm02a1_interface.o(.bss)
    hspi1                                    0x20000410   Data          88  xnucleoihm02a1_interface.o(.bss)
    hspi2                                    0x20000468   Data          88  xnucleoihm02a1_interface.o(.bss)
    huart2                                   0x200004c0   Data          64  example_usart.o(.bss)
    L6470_DaisyChainMnemonic                 0x20000500   Data          26  example_usart.o(.bss)
    UsartTextString                          0x2000051a   Data          64  example_usart.o(.bss)
    L6470_TextCommandBundle                  0x2000055a   Data          96  example_usart.o(.bss)
    GPIO_InitStructure                       0x200005c4   Data          20  example.o(.bss)
    sConfigOC                                0x200005d8   Data          28  example.o(.bss)
    htim4                                    0x200005f4   Data          60  example.o(.bss)
    __initial_sp                             0x20000a70   Data           0  startup_stm32f401xe.o(STACK)



==============================================================================

Memory Map of the image

  Image Entry point : 0x08000195

  Load Region LR_IROM1 (Base: 0x08000000, Size: 0x00007454, Max: 0x00080000, ABSOLUTE, COMPRESSED[0x000071fc])

    Execution Region ER_IROM1 (Exec base: 0x08000000, Load base: 0x08000000, Size: 0x000070c0, Max: 0x00080000, ABSOLUTE)

    Exec Addr    Load Addr    Size         Type   Attr      Idx    E Section Name        Object

    0x08000000   0x08000000   0x00000194   Data   RO         4606    RESET               startup_stm32f401xe.o
    0x08000194   0x08000194   0x00000000   Code   RO         4685  * .ARM.Collect$$$$00000000  mc_w.l(entry.o)
    0x08000194   0x08000194   0x00000004   Code   RO         4725    .ARM.Collect$$$$00000001  mc_w.l(entry2.o)
    0x08000198   0x08000198   0x00000004   Code   RO         4728    .ARM.Collect$$$$00000004  mc_w.l(entry5.o)
    0x0800019c   0x0800019c   0x00000000   Code   RO         4730    .ARM.Collect$$$$00000008  mc_w.l(entry7b.o)
    0x0800019c   0x0800019c   0x00000000   Code   RO         4732    .ARM.Collect$$$$0000000A  mc_w.l(entry8b.o)
    0x0800019c   0x0800019c   0x00000008   Code   RO         4733    .ARM.Collect$$$$0000000B  mc_w.l(entry9a.o)
    0x080001a4   0x080001a4   0x00000000   Code   RO         4735    .ARM.Collect$$$$0000000D  mc_w.l(entry10a.o)
    0x080001a4   0x080001a4   0x00000000   Code   RO         4737    .ARM.Collect$$$$0000000F  mc_w.l(entry11a.o)
    0x080001a4   0x080001a4   0x00000004   Code   RO         4726    .ARM.Collect$$$$00002712  mc_w.l(entry2.o)
    0x080001a8   0x080001a8   0x00000024   Code   RO         4607    .text               startup_stm32f401xe.o
    0x080001cc   0x080001cc   0x0000014e   Code   RO         4688    .text               mf_w.l(dadd.o)
    0x0800031a   0x0800031a   0x000000e4   Code   RO         4690    .text               mf_w.l(dmul.o)
    0x080003fe   0x080003fe   0x000000de   Code   RO         4692    .text               mf_w.l(ddiv.o)
    0x080004dc   0x080004dc   0x0000003e   Code   RO         4696    .text               mf_w.l(dfixi.o)
    0x0800051a   0x0800051a   0x00000032   Code   RO         4698    .text               mf_w.l(dfixui.o)
    0x0800054c   0x0800054c   0x00000026   Code   RO         4700    .text               mf_w.l(f2d.o)
    0x08000572   0x08000572   0x00000002   PAD
    0x08000574   0x08000574   0x00000030   Code   RO         4702    .text               mf_w.l(cdcmple.o)
    0x080005a4   0x080005a4   0x00000038   Code   RO         4704    .text               mf_w.l(d2f.o)
    0x080005dc   0x080005dc   0x0000001e   Code   RO         4739    .text               mc_w.l(llshl.o)
    0x080005fa   0x080005fa   0x00000020   Code   RO         4741    .text               mc_w.l(llushr.o)
    0x0800061a   0x0800061a   0x00000024   Code   RO         4743    .text               mc_w.l(llsshr.o)
    0x0800063e   0x0800063e   0x00000000   Code   RO         4752    .text               mc_w.l(iusefp.o)
    0x0800063e   0x0800063e   0x0000006e   Code   RO         4753    .text               mf_w.l(fepilogue.o)
    0x080006ac   0x080006ac   0x000000ba   Code   RO         4755    .text               mf_w.l(depilogue.o)
    0x08000766   0x08000766   0x0000002e   Code   RO         4759    .text               mf_w.l(dscalb.o)
    0x08000794   0x08000794   0x000000a2   Code   RO         4761    .text               mf_w.l(dsqrt.o)
    0x08000836   0x08000836   0x00000022   Code   RO         4763    .text               mf_w.l(dflti.o)
    0x08000858   0x08000858   0x00000030   Code   RO         4765    .text               mf_w.l(cdrcmple.o)
    0x08000888   0x08000888   0x00000024   Code   RO         4767    .text               mc_w.l(init.o)
    0x080008ac   0x080008ac   0x00000056   Code   RO         4777    .text               mc_w.l(__dczerorl2.o)
    0x08000902   0x08000902   0x00000002   PAD
    0x08000904   0x08000904   0x00000014   Code   RO         3585    i.BSP_0_Config      xnucleoihm02a1.o
    0x08000918   0x08000918   0x00000014   Code   RO         3586    i.BSP_1_Config      xnucleoihm02a1.o
    0x0800092c   0x0800092c   0x00000014   Code   RO         3587    i.BSP_2_Config      xnucleoihm02a1.o
    0x08000940   0x08000940   0x00000014   Code   RO         3588    i.BSP_3_Config      xnucleoihm02a1.o
    0x08000954   0x08000954   0x00000020   Code   RO         3589    i.BSP_Config        xnucleoihm02a1.o
    0x08000974   0x08000974   0x0000004c   Code   RO         3591    i.BSP_GetExpansionBoardHandle  xnucleoihm02a1.o
    0x080009c0   0x080009c0   0x00000024   Code   RO         3592    i.BSP_IRQ           xnucleoihm02a1.o
    0x080009e4   0x080009e4   0x0000001e   Code   RO         3593    i.BSP_Init          xnucleoihm02a1.o
    0x08000a02   0x08000a02   0x00000002   PAD
    0x08000a04   0x08000a04   0x00000014   Code   RO         3594    i.BSP_L6470_0_0_Config  xnucleoihm02a1.o
    0x08000a18   0x08000a18   0x00000014   Code   RO         3595    i.BSP_L6470_0_1_Config  xnucleoihm02a1.o
    0x08000a2c   0x08000a2c   0x00000014   Code   RO         3596    i.BSP_L6470_1_0_Config  xnucleoihm02a1.o
    0x08000a40   0x08000a40   0x00000014   Code   RO         3597    i.BSP_L6470_1_1_Config  xnucleoihm02a1.o
    0x08000a54   0x08000a54   0x00000014   Code   RO         3598    i.BSP_L6470_2_0_Config  xnucleoihm02a1.o
    0x08000a68   0x08000a68   0x00000014   Code   RO         3599    i.BSP_L6470_2_1_Config  xnucleoihm02a1.o
    0x08000a7c   0x08000a7c   0x00000014   Code   RO         3600    i.BSP_L6470_3_0_Config  xnucleoihm02a1.o
    0x08000a90   0x08000a90   0x00000014   Code   RO         3601    i.BSP_L6470_3_1_Config  xnucleoihm02a1.o
    0x08000aa4   0x08000aa4   0x0000001e   Code   RO         3603    i.BSP_L6470_CheckStatusRegisterFlag  xnucleoihm02a1.o
    0x08000ac2   0x08000ac2   0x0000001e   Code   RO         3605    i.BSP_L6470_GetParam  xnucleoihm02a1.o
    0x08000ae0   0x08000ae0   0x0000001a   Code   RO         3606    i.BSP_L6470_GetStatus  xnucleoihm02a1.o
    0x08000afa   0x08000afa   0x00000016   Code   RO         3607    i.BSP_L6470_GoHome  xnucleoihm02a1.o
    0x08000b10   0x08000b10   0x00000016   Code   RO         3608    i.BSP_L6470_GoMark  xnucleoihm02a1.o
    0x08000b26   0x08000b26   0x0000001a   Code   RO         3609    i.BSP_L6470_GoTo    xnucleoihm02a1.o
    0x08000b40   0x08000b40   0x00000022   Code   RO         3610    i.BSP_L6470_GoToDir  xnucleoihm02a1.o
    0x08000b62   0x08000b62   0x00000028   Code   RO         3611    i.BSP_L6470_GoUntil  xnucleoihm02a1.o
    0x08000b8a   0x08000b8a   0x00000016   Code   RO         3612    i.BSP_L6470_HardHiZ  xnucleoihm02a1.o
    0x08000ba0   0x08000ba0   0x00000016   Code   RO         3613    i.BSP_L6470_HardStop  xnucleoihm02a1.o
    0x08000bb6   0x08000bb6   0x00000002   PAD
    0x08000bb8   0x08000bb8   0x00000080   Code   RO         3614    i.BSP_L6470_Init    xnucleoihm02a1.o
    0x08000c38   0x08000c38   0x00000022   Code   RO         3615    i.BSP_L6470_Move    xnucleoihm02a1.o
    0x08000c5a   0x08000c5a   0x00000022   Code   RO         3617    i.BSP_L6470_ReleaseSW  xnucleoihm02a1.o
    0x08000c7c   0x08000c7c   0x00000016   Code   RO         3618    i.BSP_L6470_ResetDevice  xnucleoihm02a1.o
    0x08000c92   0x08000c92   0x00000016   Code   RO         3619    i.BSP_L6470_ResetPos  xnucleoihm02a1.o
    0x08000ca8   0x08000ca8   0x00000022   Code   RO         3620    i.BSP_L6470_Run     xnucleoihm02a1.o
    0x08000cca   0x08000cca   0x00000022   Code   RO         3621    i.BSP_L6470_SetParam  xnucleoihm02a1.o
    0x08000cec   0x08000cec   0x00000016   Code   RO         3622    i.BSP_L6470_SoftHiZ  xnucleoihm02a1.o
    0x08000d02   0x08000d02   0x00000016   Code   RO         3623    i.BSP_L6470_SoftStop  xnucleoihm02a1.o
    0x08000d18   0x08000d18   0x0000001a   Code   RO         3624    i.BSP_L6470_StepClock  xnucleoihm02a1.o
    0x08000d32   0x08000d32   0x00000002   PAD
    0x08000d34   0x08000d34   0x00000100   Code   RO         3625    i.BSP_NUCLEO_GPIO_Init  xnucleoihm02a1.o
    0x08000e34   0x08000e34   0x00000044   Code   RO         3626    i.BSP_Select        xnucleoihm02a1.o
    0x08000e78   0x08000e78   0x0000000e   Code   RO         3627    i.EXPBRD_ID         xnucleoihm02a1.o
    0x08000e86   0x08000e86   0x0000000a   Code   RO         4015    i.EXTI0_IRQHandler  stm32f4xx_it.o
    0x08000e90   0x08000e90   0x0000000c   Code   RO         4016    i.EXTI15_10_IRQHandler  stm32f4xx_it.o
    0x08000e9c   0x08000e9c   0x0000000a   Code   RO         4017    i.EXTI1_IRQHandler  stm32f4xx_it.o
    0x08000ea6   0x08000ea6   0x00000002   PAD
    0x08000ea8   0x08000ea8   0x00000024   Code   RO         4018    i.EXTI4_IRQHandler  stm32f4xx_it.o
    0x08000ecc   0x08000ecc   0x00000008   Code   RO         4552    i.GetMotorParameterInitData  params.o
    0x08000ed4   0x08000ed4   0x0000001a   Code   RO          800    i.HAL_Delay         stm32f4xx_hal.o
    0x08000eee   0x08000eee   0x00000002   Code   RO         1343    i.HAL_GPIO_EXTI_Callback  stm32f4xx_hal_gpio.o
    0x08000ef0   0x08000ef0   0x0000001c   Code   RO         1344    i.HAL_GPIO_EXTI_IRQHandler  stm32f4xx_hal_gpio.o
    0x08000f0c   0x08000f0c   0x000003b4   Code   RO         1345    i.HAL_GPIO_Init     stm32f4xx_hal_gpio.o
    0x080012c0   0x080012c0   0x00000064   Code   RO         1347    i.HAL_GPIO_ReadPin  stm32f4xx_hal_gpio.o
    0x08001324   0x08001324   0x00000074   Code   RO         1349    i.HAL_GPIO_WritePin  stm32f4xx_hal_gpio.o
    0x08001398   0x08001398   0x0000000c   Code   RO          806    i.HAL_GetTick       stm32f4xx_hal.o
    0x080013a4   0x080013a4   0x00000010   Code   RO          807    i.HAL_IncTick       stm32f4xx_hal.o
    0x080013b4   0x080013b4   0x0000003c   Code   RO          808    i.HAL_Init          stm32f4xx_hal.o
    0x080013f0   0x080013f0   0x00000024   Code   RO          809    i.HAL_InitTick      stm32f4xx_hal.o
    0x08001414   0x08001414   0x00000014   Code   RO         3957    i.HAL_MspInit       stm32f4xx_hal_msp.o
    0x08001428   0x08001428   0x0000006c   Code   RO         1046    i.HAL_NVIC_DisableIRQ  stm32f4xx_hal_cortex.o
    0x08001494   0x08001494   0x0000006c   Code   RO         1047    i.HAL_NVIC_EnableIRQ  stm32f4xx_hal_cortex.o
    0x08001500   0x08001500   0x000000d8   Code   RO         1053    i.HAL_NVIC_SetPriority  stm32f4xx_hal_cortex.o
    0x080015d8   0x080015d8   0x0000008c   Code   RO         1054    i.HAL_NVIC_SetPriorityGrouping  stm32f4xx_hal_cortex.o
    0x08001664   0x08001664   0x00000454   Code   RO          689    i.HAL_RCC_ClockConfig  stm32f4xx_hal_rcc.o
    0x08001ab8   0x08001ab8   0x00000038   Code   RO          694    i.HAL_RCC_GetHCLKFreq  stm32f4xx_hal_rcc.o
    0x08001af0   0x08001af0   0x0000002c   Code   RO          697    i.HAL_RCC_GetPCLK2Freq  stm32f4xx_hal_rcc.o
    0x08001b1c   0x08001b1c   0x000000b4   Code   RO          698    i.HAL_RCC_GetSysClockFreq  stm32f4xx_hal_rcc.o
    0x08001bd0   0x08001bd0   0x00000574   Code   RO          701    i.HAL_RCC_OscConfig  stm32f4xx_hal_rcc.o
    0x08002144   0x08002144   0x000001e0   Code   RO         1499    i.HAL_SPI_Init      stm32f4xx_hal_spi.o
    0x08002324   0x08002324   0x00000118   Code   RO         3959    i.HAL_SPI_MspInit   stm32f4xx_hal_msp.o
    0x0800243c   0x0800243c   0x000003a0   Code   RO         1508    i.HAL_SPI_TransmitReceive  stm32f4xx_hal_spi.o
    0x080027dc   0x080027dc   0x00000002   Code   RO         1057    i.HAL_SYSTICK_Callback  stm32f4xx_hal_cortex.o
    0x080027de   0x080027de   0x00000034   Code   RO         1058    i.HAL_SYSTICK_Config  stm32f4xx_hal_cortex.o
    0x08002812   0x08002812   0x00000008   Code   RO         1059    i.HAL_SYSTICK_IRQHandler  stm32f4xx_hal_cortex.o
    0x0800281a   0x0800281a   0x00000002   Code   RO         1867    i.HAL_UART_ErrorCallback  stm32f4xx_hal_uart.o
    0x0800281c   0x0800281c   0x00000120   Code   RO         1870    i.HAL_UART_IRQHandler  stm32f4xx_hal_uart.o
    0x0800293c   0x0800293c   0x00000002   Code   RO         1877    i.HAL_UART_RxCpltCallback  stm32f4xx_hal_uart.o
    0x0800293e   0x0800293e   0x000000f0   Code   RO         1879    i.HAL_UART_Transmit  stm32f4xx_hal_uart.o
    0x08002a2e   0x08002a2e   0x00000002   Code   RO         1882    i.HAL_UART_TxCpltCallback  stm32f4xx_hal_uart.o
    0x08002a30   0x08002a30   0x000000ec   Code   RO           11    i.L6470_CheckStatusRegisterFlag  l6470.o
    0x08002b1c   0x08002b1c   0x00000250   Code   RO           12    i.L6470_Config      l6470.o
    0x08002d6c   0x08002d6c   0x00000074   Code   RO           13    i.L6470_DaisyChainCommand  l6470.o
    0x08002de0   0x08002de0   0x00000024   Code   RO           14    i.L6470_ExtractReturnedData  l6470.o
    0x08002e04   0x08002e04   0x00000020   Code   RO           15    i.L6470_FillAppCmdPkg  l6470.o
    0x08002e24   0x08002e24   0x00000058   Code   RO           16    i.L6470_GetParam    l6470.o
    0x08002e7c   0x08002e7c   0x00000044   Code   RO           18    i.L6470_GetStatus   l6470.o
    0x08002ec0   0x08002ec0   0x00000034   Code   RO           19    i.L6470_GoHome      l6470.o
    0x08002ef4   0x08002ef4   0x00000034   Code   RO           20    i.L6470_GoMark      l6470.o
    0x08002f28   0x08002f28   0x0000003c   Code   RO           21    i.L6470_GoTo        l6470.o
    0x08002f64   0x08002f64   0x00000040   Code   RO           22    i.L6470_GoToDir     l6470.o
    0x08002fa4   0x08002fa4   0x0000003c   Code   RO           23    i.L6470_GoUntil     l6470.o
    0x08002fe0   0x08002fe0   0x00000034   Code   RO           24    i.L6470_HardHiZ     l6470.o
    0x08003014   0x08003014   0x00000034   Code   RO           25    i.L6470_HardStop    l6470.o
    0x08003048   0x08003048   0x00000014   Code   RO           26    i.L6470_ID          l6470.o
    0x0800305c   0x0800305c   0x00000038   Code   RO           27    i.L6470_Move        l6470.o
    0x08003094   0x08003094   0x00000024   Code   RO           28    i.L6470_PerformPreparedApplicationCommand  l6470.o
    0x080030b8   0x080030b8   0x0000003c   Code   RO           29    i.L6470_PrepareAppCmdPkg  l6470.o
    0x080030f4   0x080030f4   0x00000288   Code   RO           30    i.L6470_PrepareDaisyChainCommand  l6470.o
    0x0800337c   0x0800337c   0x00000020   Code   RO           31    i.L6470_PrepareGetParam  l6470.o
    0x0800339c   0x0800339c   0x0000001c   Code   RO           32    i.L6470_PrepareGetStatus  l6470.o
    0x080033b8   0x080033b8   0x0000001c   Code   RO           33    i.L6470_PrepareGoHome  l6470.o
    0x080033d4   0x080033d4   0x0000001c   Code   RO           34    i.L6470_PrepareGoMark  l6470.o
    0x080033f0   0x080033f0   0x00000020   Code   RO           35    i.L6470_PrepareGoTo  l6470.o
    0x08003410   0x08003410   0x00000020   Code   RO           36    i.L6470_PrepareGoToDir  l6470.o
    0x08003430   0x08003430   0x00000020   Code   RO           37    i.L6470_PrepareGoUntil  l6470.o
    0x08003450   0x08003450   0x0000001c   Code   RO           38    i.L6470_PrepareHardHiZ  l6470.o
    0x0800346c   0x0800346c   0x0000001c   Code   RO           39    i.L6470_PrepareHardStop  l6470.o
    0x08003488   0x08003488   0x00000020   Code   RO           40    i.L6470_PrepareMove  l6470.o
    0x080034a8   0x080034a8   0x00000020   Code   RO           41    i.L6470_PrepareReleaseSW  l6470.o
    0x080034c8   0x080034c8   0x0000001c   Code   RO           42    i.L6470_PrepareResetDevice  l6470.o
    0x080034e4   0x080034e4   0x0000001c   Code   RO           43    i.L6470_PrepareResetPos  l6470.o
    0x08003500   0x08003500   0x00000020   Code   RO           44    i.L6470_PrepareRun  l6470.o
    0x08003520   0x08003520   0x00000020   Code   RO           45    i.L6470_PrepareSetParam  l6470.o
    0x08003540   0x08003540   0x0000001c   Code   RO           46    i.L6470_PrepareSoftHiZ  l6470.o
    0x0800355c   0x0800355c   0x0000001c   Code   RO           47    i.L6470_PrepareSoftStop  l6470.o
    0x08003578   0x08003578   0x00000020   Code   RO           48    i.L6470_PrepareStepClock  l6470.o
    0x08003598   0x08003598   0x00000038   Code   RO           49    i.L6470_ReleaseSW   l6470.o
    0x080035d0   0x080035d0   0x0000002a   Code   RO           50    i.L6470_ResetAppCmdPkg  l6470.o
    0x080035fa   0x080035fa   0x00000002   PAD
    0x080035fc   0x080035fc   0x00000034   Code   RO           51    i.L6470_ResetDevice  l6470.o
    0x08003630   0x08003630   0x00000034   Code   RO           52    i.L6470_ResetPos    l6470.o
    0x08003664   0x08003664   0x00000038   Code   RO           53    i.L6470_Run         l6470.o
    0x0800369c   0x0800369c   0x00000038   Code   RO           54    i.L6470_SetParam    l6470.o
    0x080036d4   0x080036d4   0x00000034   Code   RO           55    i.L6470_SoftHiZ     l6470.o
    0x08003708   0x08003708   0x00000034   Code   RO           56    i.L6470_SoftStop    l6470.o
    0x0800373c   0x0800373c   0x00000038   Code   RO           57    i.L6470_StepClock   l6470.o
    0x08003774   0x08003774   0x00000002   Code   RO         3877    i.MX_GPIO_Init      xnucleoihm02a1_interface.o
    0x08003776   0x08003776   0x00000002   PAD
    0x08003778   0x08003778   0x00000094   Code   RO         3878    i.MX_SPI1_Init      xnucleoihm02a1_interface.o
    0x0800380c   0x0800380c   0x00000008   Code   RO         3880    i.MX_SPI_Init       xnucleoihm02a1_interface.o
    0x08003814   0x08003814   0x00000b20   Code   RO         4199    i.MicrosteppingMotor_Example_01  example.o
    0x08004334   0x08004334   0x00000014   Code   RO         3882    i.NUCLEO_Board_Init  xnucleoihm02a1_interface.o
    0x08004348   0x08004348   0x00000010   Code   RO         1060    i.NVIC_GetPriorityGrouping  stm32f4xx_hal_cortex.o
    0x08004358   0x08004358   0x00000028   Code   RO         1061    i.NVIC_SetPriority  stm32f4xx_hal_cortex.o
    0x08004380   0x08004380   0x00000114   Code   RO         1530    i.SPI_WaitOnFlagUntilTimeout  stm32f4xx_hal_spi.o
    0x08004494   0x08004494   0x00000030   Code   RO           65    i.Step_s2_2_Acc     l6470.o
    0x080044c4   0x080044c4   0x00000030   Code   RO           66    i.Step_s2_2_Dec     l6470.o
    0x080044f4   0x080044f4   0x00000054   Code   RO           67    i.Step_s_2_FsSpd    l6470.o
    0x08004548   0x08004548   0x00000030   Code   RO           68    i.Step_s_2_IntSpeed  l6470.o
    0x08004578   0x08004578   0x00000030   Code   RO           69    i.Step_s_2_MaxSpeed  l6470.o
    0x080045a8   0x080045a8   0x00000030   Code   RO           70    i.Step_s_2_MinSpeed  l6470.o
    0x080045d8   0x080045d8   0x0000000c   Code   RO         4019    i.SysTick_Handler   stm32f4xx_it.o
    0x080045e4   0x080045e4   0x00000098   Code   RO         3883    i.SystemClock_Config  xnucleoihm02a1_interface.o
    0x0800467c   0x0800467c   0x00000064   Code   RO         4571    i.SystemInit        system_stm32f4xx.o
    0x080046e0   0x080046e0   0x00000048   Code   RO         1889    i.UART_EndTransmit_IT  stm32f4xx_hal_uart.o
    0x08004728   0x08004728   0x000000bc   Code   RO         1890    i.UART_Receive_IT   stm32f4xx_hal_uart.o
    0x080047e4   0x080047e4   0x00000070   Code   RO         1892    i.UART_Transmit_IT  stm32f4xx_hal_uart.o
    0x08004854   0x08004854   0x000000fa   Code   RO         1893    i.UART_WaitOnFlagUntilTimeout  stm32f4xx_hal_uart.o
    0x0800494e   0x0800494e   0x00000002   PAD
    0x08004950   0x08004950   0x00000014   Code   RO         4020    i.USART2_IRQHandler  stm32f4xx_it.o
    0x08004964   0x08004964   0x0000007c   Code   RO         4082    i.USART_ITCharManager  example_usart.o
    0x080049e0   0x080049e0   0x00000028   Code   RO         4086    i.USART_Transmit    example_usart.o
    0x08004a08   0x08004a08   0x00000030   Code   RO         4720    i.__ARM_fpclassify  m_wm.l(fpclassify.o)
    0x08004a38   0x08004a38   0x00000358   Code   RO         4611    i.__hardfp_acos     m_wm.l(acos.o)
    0x08004d90   0x08004d90   0x00000360   Code   RO         4625    i.__hardfp_asin     m_wm.l(asin.o)
    0x080050f0   0x080050f0   0x000002d8   Code   RO         4639    i.__hardfp_atan     m_wm.l(atan.o)
    0x080053c8   0x080053c8   0x00000014   Code   RO         4653    i.__hardfp_fabs     m_wm.l(fabs.o)
    0x080053dc   0x080053dc   0x00000004   PAD
    0x080053e0   0x080053e0   0x00000c50   Code   RO         4659    i.__hardfp_pow      m_wm.l(pow.o)
    0x08006030   0x08006030   0x0000007a   Code   RO         4673    i.__hardfp_sqrt     m_wm.l(sqrt.o)
    0x080060aa   0x080060aa   0x000000f8   Code   RO         4722    i.__kernel_poly     m_wm.l(poly.o)
    0x080061a2   0x080061a2   0x00000006   PAD
    0x080061a8   0x080061a8   0x00000030   Code   RO         4706    i.__mathlib_dbl_divzero  m_wm.l(dunder.o)
    0x080061d8   0x080061d8   0x00000014   Code   RO         4707    i.__mathlib_dbl_infnan  m_wm.l(dunder.o)
    0x080061ec   0x080061ec   0x00000014   Code   RO         4708    i.__mathlib_dbl_infnan2  m_wm.l(dunder.o)
    0x08006200   0x08006200   0x00000020   Code   RO         4709    i.__mathlib_dbl_invalid  m_wm.l(dunder.o)
    0x08006220   0x08006220   0x00000020   Code   RO         4710    i.__mathlib_dbl_overflow  m_wm.l(dunder.o)
    0x08006240   0x08006240   0x00000020   Code   RO         4712    i.__mathlib_dbl_underflow  m_wm.l(dunder.o)
    0x08006260   0x08006260   0x0000000e   Code   RO         4771    i.__scatterload_copy  mc_w.l(handlers.o)
    0x0800626e   0x0800626e   0x00000002   Code   RO         4772    i.__scatterload_null  mc_w.l(handlers.o)
    0x08006270   0x08006270   0x0000000e   Code   RO         4773    i.__scatterload_zeroinit  mc_w.l(handlers.o)
    0x0800627e   0x0800627e   0x00000002   PAD
    0x08006280   0x08006280   0x0000000c   Code   RO         4747    i.__set_errno       mc_w.l(errno.o)
    0x0800628c   0x0800628c   0x00000050   Code   RO         4200    i.angle_to_steps    example.o
    0x080062dc   0x080062dc   0x00000002   Code   RO         4505    i.assert_failed     main.o
    0x080062de   0x080062de   0x00000002   PAD
    0x080062e0   0x080062e0   0x000000cc   Code   RO         4201    i.calc_L            example.o
    0x080063ac   0x080063ac   0x00000080   Code   RO         4202    i.calc_alpha        example.o
    0x0800642c   0x0800642c   0x00000158   Code   RO         4203    i.calc_beta         example.o
    0x08006584   0x08006584   0x000000fc   Code   RO         4204    i.calc_gamma        example.o
    0x08006680   0x08006680   0x00000018   Code   RO         4655    i.fabs              m_wm.l(fabs.o)
    0x08006698   0x08006698   0x00000012   Code   RO         4205    i.find_Dir_beta     example.o
    0x080066aa   0x080066aa   0x00000002   PAD
    0x080066ac   0x080066ac   0x0000004c   Code   RO         4206    i.gripper_angle_to_steps  example.o
    0x080066f8   0x080066f8   0x00000064   Code   RO           72    i.mA_2_OcdTh        l6470.o
    0x0800675c   0x0800675c   0x00000064   Code   RO           73    i.mA_2_StallTh      l6470.o
    0x080067c0   0x080067c0   0x0000002c   Code   RO         4506    i.main              main.o
    0x080067ec   0x080067ec   0x00000030   Code   RO           74    i.s_Step_2_FnSlpAcc  l6470.o
    0x0800681c   0x0800681c   0x00000030   Code   RO           75    i.s_Step_2_FnSlpDec  l6470.o
    0x0800684c   0x0800684c   0x00000030   Code   RO           76    i.s_Step_2_StSlp    l6470.o
    0x0800687c   0x0800687c   0x0000006e   Code   RO         4675    i.sqrt              m_wm.l(sqrt.o)
    0x080068ea   0x080068ea   0x00000002   PAD
    0x080068ec   0x080068ec   0x0000031a   Data   RO           78    .constdata          l6470.o
    0x08006c06   0x08006c06   0x00000010   Data   RO          702    .constdata          stm32f4xx_hal_rcc.o
    0x08006c16   0x08006c16   0x00000002   PAD
    0x08006c18   0x08006c18   0x000002c0   Data   RO         4553    .constdata          params.o
    0x08006ed8   0x08006ed8   0x00000050   Data   RO         4614    .constdata          m_wm.l(acos.o)
    0x08006f28   0x08006f28   0x00000050   Data   RO         4628    .constdata          m_wm.l(asin.o)
    0x08006f78   0x08006f78   0x00000098   Data   RO         4642    .constdata          m_wm.l(atan.o)
    0x08007010   0x08007010   0x00000088   Data   RO         4662    .constdata          m_wm.l(pow.o)
    0x08007098   0x08007098   0x00000008   Data   RO         4724    .constdata          m_wm.l(qnan.o)
    0x080070a0   0x080070a0   0x00000020   Data   RO         4769    Region$$Table       anon$$obj.o


    Execution Region RW_IRAM1 (Exec base: 0x20000000, Load base: 0x080070c0, Size: 0x00000a70, Max: 0x00018000, ABSOLUTE, COMPRESSED[0x0000013c])

    Exec Addr    Load Addr    Size         Type   Attr      Idx    E Section Name        Object

    0x20000000   COMPRESSED   0x000000ad   Data   RW           79    .data               l6470.o
    0x200000ad   COMPRESSED   0x00000003   PAD
    0x200000b0   COMPRESSED   0x00000004   Data   RW          814    .data               stm32f4xx_hal.o
    0x200000b4   COMPRESSED   0x000002d8   Data   RW         3629    .data               xnucleoihm02a1.o
    0x2000038c   COMPRESSED   0x00000004   Data   RW         4573    .data               system_stm32f4xx.o
    0x20000390   COMPRESSED   0x00000004   Data   RW         4748    .data               mc_w.l(errno.o)
    0x20000394        -       0x00000020   Zero   RW           77    .bss                l6470.o
    0x200003b4        -       0x00000018   Zero   RW         3628    .bss                xnucleoihm02a1.o
    0x200003cc        -       0x000000f4   Zero   RW         3885    .bss                xnucleoihm02a1_interface.o
    0x200004c0        -       0x00000103   Zero   RW         4091    .bss                example_usart.o
    0x200005c3   COMPRESSED   0x00000001   PAD
    0x200005c4        -       0x000000ac   Zero   RW         4207    .bss                example.o
    0x20000670        -       0x00000400   Zero   RW         4604    STACK               startup_stm32f401xe.o


==============================================================================

Image component sizes


      Code (inc. data)   RO Data    RW Data    ZI Data      Debug   Object Name

      3950        166          0          0        172     205696   example.o
       164          4          0          0        259       4007   example_usart.o
      4062        516        794        173         32     277411   l6470.o
        46          8          0          0          0       1555   main.o
         8          4        704          0          0       1209   params.o
        36          8        404          0       1024        904   startup_stm32f401xe.o
       150         16          0          4          0       4578   stm32f4xx_hal.o
       690        284          0          0          0      33013   stm32f4xx_hal_cortex.o
      1194        248          0          0          0       5007   stm32f4xx_hal_gpio.o
       300         20          0          0          0       1944   stm32f4xx_hal_msp.o
      2784        190         16          0          0       6204   stm32f4xx_hal_rcc.o
      1684        122          0          0          0       4025   stm32f4xx_hal_spi.o
      1156          0          0          0          0       7891   stm32f4xx_hal_uart.o
       100          8          0          0          0       3410   stm32f4xx_it.o
       100         18          0          4          0       1517   system_stm32f4xx.o
      1404         96          0        728         24      31983   xnucleoihm02a1.o
       330         24          0          0        244       4521   xnucleoihm02a1_interface.o

    ----------------------------------------------------------------------
     18176       1732       1952        912       1756     594875   Object Totals
         0          0         32          0          0          0   (incl. Generated)
        18          0          2          3          1          0   (incl. Padding)

    ----------------------------------------------------------------------

      Code (inc. data)   RO Data    RW Data    ZI Data      Debug   Library Member Name

       856        118         80          0          0        288   acos.o
       864         94         80          0          0        280   asin.o
       728        106        152          0          0        228   atan.o
       184         44          0          0          0        744   dunder.o
        44          0          0          0          0        248   fabs.o
        48          0          0          0          0        124   fpclassify.o
       248          0          0          0          0        152   poly.o
      3152        296        136          0          0        352   pow.o
         0          0          8          0          0          0   qnan.o
       232          0          0          0          0        296   sqrt.o
        86          0          0          0          0          0   __dczerorl2.o
         0          0          0          0          0          0   entry.o
         0          0          0          0          0          0   entry10a.o
         0          0          0          0          0          0   entry11a.o
         8          4          0          0          0          0   entry2.o
         4          0          0          0          0          0   entry5.o
         0          0          0          0          0          0   entry7b.o
         0          0          0          0          0          0   entry8b.o
         8          4          0          0          0          0   entry9a.o
        12          6          0          4          0         68   errno.o
        30          0          0          0          0          0   handlers.o
        36          8          0          0          0         68   init.o
         0          0          0          0          0          0   iusefp.o
        30          0          0          0          0         68   llshl.o
        36          0          0          0          0         68   llsshr.o
        32          0          0          0          0         68   llushr.o
        48          0          0          0          0         68   cdcmple.o
        48          0          0          0          0         68   cdrcmple.o
        56          0          0          0          0         88   d2f.o
       334          0          0          0          0        148   dadd.o
       222          0          0          0          0        100   ddiv.o
       186          0          0          0          0        176   depilogue.o
        62          0          0          0          0         80   dfixi.o
        50          0          0          0          0         76   dfixui.o
        34          0          0          0          0         76   dflti.o
       228          0          0          0          0         96   dmul.o
        46          0          0          0          0         80   dscalb.o
       162          0          0          0          0        100   dsqrt.o
        38          0          0          0          0         68   f2d.o
       110          0          0          0          0        168   fepilogue.o

    ----------------------------------------------------------------------
      8280        680        456          4          0       4444   Library Totals
        18          0          0          0          0          0   (incl. Padding)

    ----------------------------------------------------------------------

      Code (inc. data)   RO Data    RW Data    ZI Data      Debug   Library Name

      6356        658        456          0          0       2712   m_wm.l
       282         22          0          4          0        340   mc_w.l
      1624          0          0          0          0       1392   mf_w.l

    ----------------------------------------------------------------------
      8280        680        456          4          0       4444   Library Totals

    ----------------------------------------------------------------------

==============================================================================


      Code (inc. data)   RO Data    RW Data    ZI Data      Debug   

     26456       2412       2408        916       1756     582071   Grand Totals
     26456       2412       2408        316       1756     582071   ELF Image Totals (compressed)
     26456       2412       2408        316          0          0   ROM Totals

==============================================================================

    Total RO  Size (Code + RO Data)                28864 (  28.19kB)
    Total RW  Size (RW Data + ZI Data)              2672 (   2.61kB)
    Total ROM Size (Code + RO Data + RW Data)      29180 (  28.50kB)

==============================================================================

